
USART_Example_F1.elf:     file format elf32-littlearm

Sections:
Idx Name          Size      VMA       LMA       File off  Algn
  0 .isr_vector   0000010c  08000000  08000000  00010000  2**0
                  CONTENTS, ALLOC, LOAD, READONLY, DATA
  1 .text         00001594  08000110  08000110  00010110  2**3
                  CONTENTS, ALLOC, LOAD, READONLY, CODE
  2 .rodata       000000e8  080016a4  080016a4  000116a4  2**2
                  CONTENTS, ALLOC, LOAD, READONLY, DATA
  3 .init_array   00000004  0800178c  0800178c  0001178c  2**2
                  CONTENTS, ALLOC, LOAD, DATA
  4 .fini_array   00000004  08001790  08001790  00011790  2**2
                  CONTENTS, ALLOC, LOAD, DATA
  5 .data         00000014  20000000  08001794  00020000  2**2
                  CONTENTS, ALLOC, LOAD, DATA
  6 .bss          000001bc  20000014  080017a8  00020014  2**2
                  ALLOC
  7 ._user_heap_stack 00000100  200001d0  080017a8  000201d0  2**0
                  ALLOC
  8 .ARM.attributes 00000029  00000000  00000000  00020014  2**0
                  CONTENTS, READONLY
  9 .debug_info   0000376d  00000000  00000000  0002003d  2**0
                  CONTENTS, READONLY, DEBUGGING
 10 .debug_abbrev 00000b85  00000000  00000000  000237aa  2**0
                  CONTENTS, READONLY, DEBUGGING
 11 .debug_aranges 00000218  00000000  00000000  00024330  2**3
                  CONTENTS, READONLY, DEBUGGING
 12 .debug_ranges 000001b8  00000000  00000000  00024548  2**3
                  CONTENTS, READONLY, DEBUGGING
 13 .debug_line   0000153d  00000000  00000000  00024700  2**0
                  CONTENTS, READONLY, DEBUGGING
 14 .debug_str    0000107b  00000000  00000000  00025c3d  2**0
                  CONTENTS, READONLY, DEBUGGING
 15 .comment      0000007c  00000000  00000000  00026cb8  2**0
                  CONTENTS, READONLY
 16 .debug_frame  00000744  00000000  00000000  00026d34  2**2
                  CONTENTS, READONLY, DEBUGGING

Disassembly of section .text:

08000110 <__do_global_dtors_aux>:
 8000110:	b510      	push	{r4, lr}
 8000112:	4c05      	ldr	r4, [pc, #20]	; (8000128 <__do_global_dtors_aux+0x18>)
 8000114:	7823      	ldrb	r3, [r4, #0]
 8000116:	b933      	cbnz	r3, 8000126 <__do_global_dtors_aux+0x16>
 8000118:	4b04      	ldr	r3, [pc, #16]	; (800012c <__do_global_dtors_aux+0x1c>)
 800011a:	b113      	cbz	r3, 8000122 <__do_global_dtors_aux+0x12>
 800011c:	4804      	ldr	r0, [pc, #16]	; (8000130 <__do_global_dtors_aux+0x20>)
 800011e:	f3af 8000 	nop.w
 8000122:	2301      	movs	r3, #1
 8000124:	7023      	strb	r3, [r4, #0]
 8000126:	bd10      	pop	{r4, pc}
 8000128:	20000014 	.word	0x20000014
 800012c:	00000000 	.word	0x00000000
 8000130:	0800168c 	.word	0x0800168c

08000134 <frame_dummy>:
 8000134:	b508      	push	{r3, lr}
 8000136:	4b03      	ldr	r3, [pc, #12]	; (8000144 <frame_dummy+0x10>)
 8000138:	b11b      	cbz	r3, 8000142 <frame_dummy+0xe>
 800013a:	4903      	ldr	r1, [pc, #12]	; (8000148 <frame_dummy+0x14>)
 800013c:	4803      	ldr	r0, [pc, #12]	; (800014c <frame_dummy+0x18>)
 800013e:	f3af 8000 	nop.w
 8000142:	bd08      	pop	{r3, pc}
 8000144:	00000000 	.word	0x00000000
 8000148:	20000018 	.word	0x20000018
 800014c:	0800168c 	.word	0x0800168c

08000150 <__aeabi_drsub>:
 8000150:	f081 4100 	eor.w	r1, r1, #2147483648	; 0x80000000
 8000154:	e002      	b.n	800015c <__adddf3>
 8000156:	bf00      	nop

08000158 <__aeabi_dsub>:
 8000158:	f083 4300 	eor.w	r3, r3, #2147483648	; 0x80000000

0800015c <__adddf3>:
 800015c:	b530      	push	{r4, r5, lr}
 800015e:	ea4f 0441 	mov.w	r4, r1, lsl #1
 8000162:	ea4f 0543 	mov.w	r5, r3, lsl #1
 8000166:	ea94 0f05 	teq	r4, r5
 800016a:	bf08      	it	eq
 800016c:	ea90 0f02 	teqeq	r0, r2
 8000170:	bf1f      	itttt	ne
 8000172:	ea54 0c00 	orrsne.w	ip, r4, r0
 8000176:	ea55 0c02 	orrsne.w	ip, r5, r2
 800017a:	ea7f 5c64 	mvnsne.w	ip, r4, asr #21
 800017e:	ea7f 5c65 	mvnsne.w	ip, r5, asr #21
 8000182:	f000 80e2 	beq.w	800034a <__adddf3+0x1ee>
 8000186:	ea4f 5454 	mov.w	r4, r4, lsr #21
 800018a:	ebd4 5555 	rsbs	r5, r4, r5, lsr #21
 800018e:	bfb8      	it	lt
 8000190:	426d      	neglt	r5, r5
 8000192:	dd0c      	ble.n	80001ae <__adddf3+0x52>
 8000194:	442c      	add	r4, r5
 8000196:	ea80 0202 	eor.w	r2, r0, r2
 800019a:	ea81 0303 	eor.w	r3, r1, r3
 800019e:	ea82 0000 	eor.w	r0, r2, r0
 80001a2:	ea83 0101 	eor.w	r1, r3, r1
 80001a6:	ea80 0202 	eor.w	r2, r0, r2
 80001aa:	ea81 0303 	eor.w	r3, r1, r3
 80001ae:	2d36      	cmp	r5, #54	; 0x36
 80001b0:	bf88      	it	hi
 80001b2:	bd30      	pophi	{r4, r5, pc}
 80001b4:	f011 4f00 	tst.w	r1, #2147483648	; 0x80000000
 80001b8:	ea4f 3101 	mov.w	r1, r1, lsl #12
 80001bc:	f44f 1c80 	mov.w	ip, #1048576	; 0x100000
 80001c0:	ea4c 3111 	orr.w	r1, ip, r1, lsr #12
 80001c4:	d002      	beq.n	80001cc <__adddf3+0x70>
 80001c6:	4240      	negs	r0, r0
 80001c8:	eb61 0141 	sbc.w	r1, r1, r1, lsl #1
 80001cc:	f013 4f00 	tst.w	r3, #2147483648	; 0x80000000
 80001d0:	ea4f 3303 	mov.w	r3, r3, lsl #12
 80001d4:	ea4c 3313 	orr.w	r3, ip, r3, lsr #12
 80001d8:	d002      	beq.n	80001e0 <__adddf3+0x84>
 80001da:	4252      	negs	r2, r2
 80001dc:	eb63 0343 	sbc.w	r3, r3, r3, lsl #1
 80001e0:	ea94 0f05 	teq	r4, r5
 80001e4:	f000 80a7 	beq.w	8000336 <__adddf3+0x1da>
 80001e8:	f1a4 0401 	sub.w	r4, r4, #1
 80001ec:	f1d5 0e20 	rsbs	lr, r5, #32
 80001f0:	db0d      	blt.n	800020e <__adddf3+0xb2>
 80001f2:	fa02 fc0e 	lsl.w	ip, r2, lr
 80001f6:	fa22 f205 	lsr.w	r2, r2, r5
 80001fa:	1880      	adds	r0, r0, r2
 80001fc:	f141 0100 	adc.w	r1, r1, #0
 8000200:	fa03 f20e 	lsl.w	r2, r3, lr
 8000204:	1880      	adds	r0, r0, r2
 8000206:	fa43 f305 	asr.w	r3, r3, r5
 800020a:	4159      	adcs	r1, r3
 800020c:	e00e      	b.n	800022c <__adddf3+0xd0>
 800020e:	f1a5 0520 	sub.w	r5, r5, #32
 8000212:	f10e 0e20 	add.w	lr, lr, #32
 8000216:	2a01      	cmp	r2, #1
 8000218:	fa03 fc0e 	lsl.w	ip, r3, lr
 800021c:	bf28      	it	cs
 800021e:	f04c 0c02 	orrcs.w	ip, ip, #2
 8000222:	fa43 f305 	asr.w	r3, r3, r5
 8000226:	18c0      	adds	r0, r0, r3
 8000228:	eb51 71e3 	adcs.w	r1, r1, r3, asr #31
 800022c:	f001 4500 	and.w	r5, r1, #2147483648	; 0x80000000
 8000230:	d507      	bpl.n	8000242 <__adddf3+0xe6>
 8000232:	f04f 0e00 	mov.w	lr, #0
 8000236:	f1dc 0c00 	rsbs	ip, ip, #0
 800023a:	eb7e 0000 	sbcs.w	r0, lr, r0
 800023e:	eb6e 0101 	sbc.w	r1, lr, r1
 8000242:	f5b1 1f80 	cmp.w	r1, #1048576	; 0x100000
 8000246:	d31b      	bcc.n	8000280 <__adddf3+0x124>
 8000248:	f5b1 1f00 	cmp.w	r1, #2097152	; 0x200000
 800024c:	d30c      	bcc.n	8000268 <__adddf3+0x10c>
 800024e:	0849      	lsrs	r1, r1, #1
 8000250:	ea5f 0030 	movs.w	r0, r0, rrx
 8000254:	ea4f 0c3c 	mov.w	ip, ip, rrx
 8000258:	f104 0401 	add.w	r4, r4, #1
 800025c:	ea4f 5244 	mov.w	r2, r4, lsl #21
 8000260:	f512 0f80 	cmn.w	r2, #4194304	; 0x400000
 8000264:	f080 809a 	bcs.w	800039c <__adddf3+0x240>
 8000268:	f1bc 4f00 	cmp.w	ip, #2147483648	; 0x80000000
 800026c:	bf08      	it	eq
 800026e:	ea5f 0c50 	movseq.w	ip, r0, lsr #1
 8000272:	f150 0000 	adcs.w	r0, r0, #0
 8000276:	eb41 5104 	adc.w	r1, r1, r4, lsl #20
 800027a:	ea41 0105 	orr.w	r1, r1, r5
 800027e:	bd30      	pop	{r4, r5, pc}
 8000280:	ea5f 0c4c 	movs.w	ip, ip, lsl #1
 8000284:	4140      	adcs	r0, r0
 8000286:	eb41 0101 	adc.w	r1, r1, r1
 800028a:	f411 1f80 	tst.w	r1, #1048576	; 0x100000
 800028e:	f1a4 0401 	sub.w	r4, r4, #1
 8000292:	d1e9      	bne.n	8000268 <__adddf3+0x10c>
 8000294:	f091 0f00 	teq	r1, #0
 8000298:	bf04      	itt	eq
 800029a:	4601      	moveq	r1, r0
 800029c:	2000      	moveq	r0, #0
 800029e:	fab1 f381 	clz	r3, r1
 80002a2:	bf08      	it	eq
 80002a4:	3320      	addeq	r3, #32
 80002a6:	f1a3 030b 	sub.w	r3, r3, #11
 80002aa:	f1b3 0220 	subs.w	r2, r3, #32
 80002ae:	da0c      	bge.n	80002ca <__adddf3+0x16e>
 80002b0:	320c      	adds	r2, #12
 80002b2:	dd08      	ble.n	80002c6 <__adddf3+0x16a>
 80002b4:	f102 0c14 	add.w	ip, r2, #20
 80002b8:	f1c2 020c 	rsb	r2, r2, #12
 80002bc:	fa01 f00c 	lsl.w	r0, r1, ip
 80002c0:	fa21 f102 	lsr.w	r1, r1, r2
 80002c4:	e00c      	b.n	80002e0 <__adddf3+0x184>
 80002c6:	f102 0214 	add.w	r2, r2, #20
 80002ca:	bfd8      	it	le
 80002cc:	f1c2 0c20 	rsble	ip, r2, #32
 80002d0:	fa01 f102 	lsl.w	r1, r1, r2
 80002d4:	fa20 fc0c 	lsr.w	ip, r0, ip
 80002d8:	bfdc      	itt	le
 80002da:	ea41 010c 	orrle.w	r1, r1, ip
 80002de:	4090      	lslle	r0, r2
 80002e0:	1ae4      	subs	r4, r4, r3
 80002e2:	bfa2      	ittt	ge
 80002e4:	eb01 5104 	addge.w	r1, r1, r4, lsl #20
 80002e8:	4329      	orrge	r1, r5
 80002ea:	bd30      	popge	{r4, r5, pc}
 80002ec:	ea6f 0404 	mvn.w	r4, r4
 80002f0:	3c1f      	subs	r4, #31
 80002f2:	da1c      	bge.n	800032e <__adddf3+0x1d2>
 80002f4:	340c      	adds	r4, #12
 80002f6:	dc0e      	bgt.n	8000316 <__adddf3+0x1ba>
 80002f8:	f104 0414 	add.w	r4, r4, #20
 80002fc:	f1c4 0220 	rsb	r2, r4, #32
 8000300:	fa20 f004 	lsr.w	r0, r0, r4
 8000304:	fa01 f302 	lsl.w	r3, r1, r2
 8000308:	ea40 0003 	orr.w	r0, r0, r3
 800030c:	fa21 f304 	lsr.w	r3, r1, r4
 8000310:	ea45 0103 	orr.w	r1, r5, r3
 8000314:	bd30      	pop	{r4, r5, pc}
 8000316:	f1c4 040c 	rsb	r4, r4, #12
 800031a:	f1c4 0220 	rsb	r2, r4, #32
 800031e:	fa20 f002 	lsr.w	r0, r0, r2
 8000322:	fa01 f304 	lsl.w	r3, r1, r4
 8000326:	ea40 0003 	orr.w	r0, r0, r3
 800032a:	4629      	mov	r1, r5
 800032c:	bd30      	pop	{r4, r5, pc}
 800032e:	fa21 f004 	lsr.w	r0, r1, r4
 8000332:	4629      	mov	r1, r5
 8000334:	bd30      	pop	{r4, r5, pc}
 8000336:	f094 0f00 	teq	r4, #0
 800033a:	f483 1380 	eor.w	r3, r3, #1048576	; 0x100000
 800033e:	bf06      	itte	eq
 8000340:	f481 1180 	eoreq.w	r1, r1, #1048576	; 0x100000
 8000344:	3401      	addeq	r4, #1
 8000346:	3d01      	subne	r5, #1
 8000348:	e74e      	b.n	80001e8 <__adddf3+0x8c>
 800034a:	ea7f 5c64 	mvns.w	ip, r4, asr #21
 800034e:	bf18      	it	ne
 8000350:	ea7f 5c65 	mvnsne.w	ip, r5, asr #21
 8000354:	d029      	beq.n	80003aa <__adddf3+0x24e>
 8000356:	ea94 0f05 	teq	r4, r5
 800035a:	bf08      	it	eq
 800035c:	ea90 0f02 	teqeq	r0, r2
 8000360:	d005      	beq.n	800036e <__adddf3+0x212>
 8000362:	ea54 0c00 	orrs.w	ip, r4, r0
 8000366:	bf04      	itt	eq
 8000368:	4619      	moveq	r1, r3
 800036a:	4610      	moveq	r0, r2
 800036c:	bd30      	pop	{r4, r5, pc}
 800036e:	ea91 0f03 	teq	r1, r3
 8000372:	bf1e      	ittt	ne
 8000374:	2100      	movne	r1, #0
 8000376:	2000      	movne	r0, #0
 8000378:	bd30      	popne	{r4, r5, pc}
 800037a:	ea5f 5c54 	movs.w	ip, r4, lsr #21
 800037e:	d105      	bne.n	800038c <__adddf3+0x230>
 8000380:	0040      	lsls	r0, r0, #1
 8000382:	4149      	adcs	r1, r1
 8000384:	bf28      	it	cs
 8000386:	f041 4100 	orrcs.w	r1, r1, #2147483648	; 0x80000000
 800038a:	bd30      	pop	{r4, r5, pc}
 800038c:	f514 0480 	adds.w	r4, r4, #4194304	; 0x400000
 8000390:	bf3c      	itt	cc
 8000392:	f501 1180 	addcc.w	r1, r1, #1048576	; 0x100000
 8000396:	bd30      	popcc	{r4, r5, pc}
 8000398:	f001 4500 	and.w	r5, r1, #2147483648	; 0x80000000
 800039c:	f045 41fe 	orr.w	r1, r5, #2130706432	; 0x7f000000
 80003a0:	f441 0170 	orr.w	r1, r1, #15728640	; 0xf00000
 80003a4:	f04f 0000 	mov.w	r0, #0
 80003a8:	bd30      	pop	{r4, r5, pc}
 80003aa:	ea7f 5c64 	mvns.w	ip, r4, asr #21
 80003ae:	bf1a      	itte	ne
 80003b0:	4619      	movne	r1, r3
 80003b2:	4610      	movne	r0, r2
 80003b4:	ea7f 5c65 	mvnseq.w	ip, r5, asr #21
 80003b8:	bf1c      	itt	ne
 80003ba:	460b      	movne	r3, r1
 80003bc:	4602      	movne	r2, r0
 80003be:	ea50 3401 	orrs.w	r4, r0, r1, lsl #12
 80003c2:	bf06      	itte	eq
 80003c4:	ea52 3503 	orrseq.w	r5, r2, r3, lsl #12
 80003c8:	ea91 0f03 	teqeq	r1, r3
 80003cc:	f441 2100 	orrne.w	r1, r1, #524288	; 0x80000
 80003d0:	bd30      	pop	{r4, r5, pc}
 80003d2:	bf00      	nop

080003d4 <__aeabi_ui2d>:
 80003d4:	f090 0f00 	teq	r0, #0
 80003d8:	bf04      	itt	eq
 80003da:	2100      	moveq	r1, #0
 80003dc:	4770      	bxeq	lr
 80003de:	b530      	push	{r4, r5, lr}
 80003e0:	f44f 6480 	mov.w	r4, #1024	; 0x400
 80003e4:	f104 0432 	add.w	r4, r4, #50	; 0x32
 80003e8:	f04f 0500 	mov.w	r5, #0
 80003ec:	f04f 0100 	mov.w	r1, #0
 80003f0:	e750      	b.n	8000294 <__adddf3+0x138>
 80003f2:	bf00      	nop

080003f4 <__aeabi_i2d>:
 80003f4:	f090 0f00 	teq	r0, #0
 80003f8:	bf04      	itt	eq
 80003fa:	2100      	moveq	r1, #0
 80003fc:	4770      	bxeq	lr
 80003fe:	b530      	push	{r4, r5, lr}
 8000400:	f44f 6480 	mov.w	r4, #1024	; 0x400
 8000404:	f104 0432 	add.w	r4, r4, #50	; 0x32
 8000408:	f010 4500 	ands.w	r5, r0, #2147483648	; 0x80000000
 800040c:	bf48      	it	mi
 800040e:	4240      	negmi	r0, r0
 8000410:	f04f 0100 	mov.w	r1, #0
 8000414:	e73e      	b.n	8000294 <__adddf3+0x138>
 8000416:	bf00      	nop

08000418 <__aeabi_f2d>:
 8000418:	0042      	lsls	r2, r0, #1
 800041a:	ea4f 01e2 	mov.w	r1, r2, asr #3
 800041e:	ea4f 0131 	mov.w	r1, r1, rrx
 8000422:	ea4f 7002 	mov.w	r0, r2, lsl #28
 8000426:	bf1f      	itttt	ne
 8000428:	f012 437f 	andsne.w	r3, r2, #4278190080	; 0xff000000
 800042c:	f093 4f7f 	teqne	r3, #4278190080	; 0xff000000
 8000430:	f081 5160 	eorne.w	r1, r1, #939524096	; 0x38000000
 8000434:	4770      	bxne	lr
 8000436:	f092 0f00 	teq	r2, #0
 800043a:	bf14      	ite	ne
 800043c:	f093 4f7f 	teqne	r3, #4278190080	; 0xff000000
 8000440:	4770      	bxeq	lr
 8000442:	b530      	push	{r4, r5, lr}
 8000444:	f44f 7460 	mov.w	r4, #896	; 0x380
 8000448:	f001 4500 	and.w	r5, r1, #2147483648	; 0x80000000
 800044c:	f021 4100 	bic.w	r1, r1, #2147483648	; 0x80000000
 8000450:	e720      	b.n	8000294 <__adddf3+0x138>
 8000452:	bf00      	nop

08000454 <__aeabi_ul2d>:
 8000454:	ea50 0201 	orrs.w	r2, r0, r1
 8000458:	bf08      	it	eq
 800045a:	4770      	bxeq	lr
 800045c:	b530      	push	{r4, r5, lr}
 800045e:	f04f 0500 	mov.w	r5, #0
 8000462:	e00a      	b.n	800047a <__aeabi_l2d+0x16>

08000464 <__aeabi_l2d>:
 8000464:	ea50 0201 	orrs.w	r2, r0, r1
 8000468:	bf08      	it	eq
 800046a:	4770      	bxeq	lr
 800046c:	b530      	push	{r4, r5, lr}
 800046e:	f011 4500 	ands.w	r5, r1, #2147483648	; 0x80000000
 8000472:	d502      	bpl.n	800047a <__aeabi_l2d+0x16>
 8000474:	4240      	negs	r0, r0
 8000476:	eb61 0141 	sbc.w	r1, r1, r1, lsl #1
 800047a:	f44f 6480 	mov.w	r4, #1024	; 0x400
 800047e:	f104 0432 	add.w	r4, r4, #50	; 0x32
 8000482:	ea5f 5c91 	movs.w	ip, r1, lsr #22
 8000486:	f43f aedc 	beq.w	8000242 <__adddf3+0xe6>
 800048a:	f04f 0203 	mov.w	r2, #3
 800048e:	ea5f 0cdc 	movs.w	ip, ip, lsr #3
 8000492:	bf18      	it	ne
 8000494:	3203      	addne	r2, #3
 8000496:	ea5f 0cdc 	movs.w	ip, ip, lsr #3
 800049a:	bf18      	it	ne
 800049c:	3203      	addne	r2, #3
 800049e:	eb02 02dc 	add.w	r2, r2, ip, lsr #3
 80004a2:	f1c2 0320 	rsb	r3, r2, #32
 80004a6:	fa00 fc03 	lsl.w	ip, r0, r3
 80004aa:	fa20 f002 	lsr.w	r0, r0, r2
 80004ae:	fa01 fe03 	lsl.w	lr, r1, r3
 80004b2:	ea40 000e 	orr.w	r0, r0, lr
 80004b6:	fa21 f102 	lsr.w	r1, r1, r2
 80004ba:	4414      	add	r4, r2
 80004bc:	e6c1      	b.n	8000242 <__adddf3+0xe6>
 80004be:	bf00      	nop

080004c0 <__aeabi_dmul>:
 80004c0:	b570      	push	{r4, r5, r6, lr}
 80004c2:	f04f 0cff 	mov.w	ip, #255	; 0xff
 80004c6:	f44c 6ce0 	orr.w	ip, ip, #1792	; 0x700
 80004ca:	ea1c 5411 	ands.w	r4, ip, r1, lsr #20
 80004ce:	bf1d      	ittte	ne
 80004d0:	ea1c 5513 	andsne.w	r5, ip, r3, lsr #20
 80004d4:	ea94 0f0c 	teqne	r4, ip
 80004d8:	ea95 0f0c 	teqne	r5, ip
 80004dc:	f000 f8de 	bleq	800069c <__aeabi_dmul+0x1dc>
 80004e0:	442c      	add	r4, r5
 80004e2:	ea81 0603 	eor.w	r6, r1, r3
 80004e6:	ea21 514c 	bic.w	r1, r1, ip, lsl #21
 80004ea:	ea23 534c 	bic.w	r3, r3, ip, lsl #21
 80004ee:	ea50 3501 	orrs.w	r5, r0, r1, lsl #12
 80004f2:	bf18      	it	ne
 80004f4:	ea52 3503 	orrsne.w	r5, r2, r3, lsl #12
 80004f8:	f441 1180 	orr.w	r1, r1, #1048576	; 0x100000
 80004fc:	f443 1380 	orr.w	r3, r3, #1048576	; 0x100000
 8000500:	d038      	beq.n	8000574 <__aeabi_dmul+0xb4>
 8000502:	fba0 ce02 	umull	ip, lr, r0, r2
 8000506:	f04f 0500 	mov.w	r5, #0
 800050a:	fbe1 e502 	umlal	lr, r5, r1, r2
 800050e:	f006 4200 	and.w	r2, r6, #2147483648	; 0x80000000
 8000512:	fbe0 e503 	umlal	lr, r5, r0, r3
 8000516:	f04f 0600 	mov.w	r6, #0
 800051a:	fbe1 5603 	umlal	r5, r6, r1, r3
 800051e:	f09c 0f00 	teq	ip, #0
 8000522:	bf18      	it	ne
 8000524:	f04e 0e01 	orrne.w	lr, lr, #1
 8000528:	f1a4 04ff 	sub.w	r4, r4, #255	; 0xff
 800052c:	f5b6 7f00 	cmp.w	r6, #512	; 0x200
 8000530:	f564 7440 	sbc.w	r4, r4, #768	; 0x300
 8000534:	d204      	bcs.n	8000540 <__aeabi_dmul+0x80>
 8000536:	ea5f 0e4e 	movs.w	lr, lr, lsl #1
 800053a:	416d      	adcs	r5, r5
 800053c:	eb46 0606 	adc.w	r6, r6, r6
 8000540:	ea42 21c6 	orr.w	r1, r2, r6, lsl #11
 8000544:	ea41 5155 	orr.w	r1, r1, r5, lsr #21
 8000548:	ea4f 20c5 	mov.w	r0, r5, lsl #11
 800054c:	ea40 505e 	orr.w	r0, r0, lr, lsr #21
 8000550:	ea4f 2ece 	mov.w	lr, lr, lsl #11
 8000554:	f1b4 0cfd 	subs.w	ip, r4, #253	; 0xfd
 8000558:	bf88      	it	hi
 800055a:	f5bc 6fe0 	cmphi.w	ip, #1792	; 0x700
 800055e:	d81e      	bhi.n	800059e <__aeabi_dmul+0xde>
 8000560:	f1be 4f00 	cmp.w	lr, #2147483648	; 0x80000000
 8000564:	bf08      	it	eq
 8000566:	ea5f 0e50 	movseq.w	lr, r0, lsr #1
 800056a:	f150 0000 	adcs.w	r0, r0, #0
 800056e:	eb41 5104 	adc.w	r1, r1, r4, lsl #20
 8000572:	bd70      	pop	{r4, r5, r6, pc}
 8000574:	f006 4600 	and.w	r6, r6, #2147483648	; 0x80000000
 8000578:	ea46 0101 	orr.w	r1, r6, r1
 800057c:	ea40 0002 	orr.w	r0, r0, r2
 8000580:	ea81 0103 	eor.w	r1, r1, r3
 8000584:	ebb4 045c 	subs.w	r4, r4, ip, lsr #1
 8000588:	bfc2      	ittt	gt
 800058a:	ebd4 050c 	rsbsgt	r5, r4, ip
 800058e:	ea41 5104 	orrgt.w	r1, r1, r4, lsl #20
 8000592:	bd70      	popgt	{r4, r5, r6, pc}
 8000594:	f441 1180 	orr.w	r1, r1, #1048576	; 0x100000
 8000598:	f04f 0e00 	mov.w	lr, #0
 800059c:	3c01      	subs	r4, #1
 800059e:	f300 80ab 	bgt.w	80006f8 <__aeabi_dmul+0x238>
 80005a2:	f114 0f36 	cmn.w	r4, #54	; 0x36
 80005a6:	bfde      	ittt	le
 80005a8:	2000      	movle	r0, #0
 80005aa:	f001 4100 	andle.w	r1, r1, #2147483648	; 0x80000000
 80005ae:	bd70      	pople	{r4, r5, r6, pc}
 80005b0:	f1c4 0400 	rsb	r4, r4, #0
 80005b4:	3c20      	subs	r4, #32
 80005b6:	da35      	bge.n	8000624 <__aeabi_dmul+0x164>
 80005b8:	340c      	adds	r4, #12
 80005ba:	dc1b      	bgt.n	80005f4 <__aeabi_dmul+0x134>
 80005bc:	f104 0414 	add.w	r4, r4, #20
 80005c0:	f1c4 0520 	rsb	r5, r4, #32
 80005c4:	fa00 f305 	lsl.w	r3, r0, r5
 80005c8:	fa20 f004 	lsr.w	r0, r0, r4
 80005cc:	fa01 f205 	lsl.w	r2, r1, r5
 80005d0:	ea40 0002 	orr.w	r0, r0, r2
 80005d4:	f001 4200 	and.w	r2, r1, #2147483648	; 0x80000000
 80005d8:	f021 4100 	bic.w	r1, r1, #2147483648	; 0x80000000
 80005dc:	eb10 70d3 	adds.w	r0, r0, r3, lsr #31
 80005e0:	fa21 f604 	lsr.w	r6, r1, r4
 80005e4:	eb42 0106 	adc.w	r1, r2, r6
 80005e8:	ea5e 0e43 	orrs.w	lr, lr, r3, lsl #1
 80005ec:	bf08      	it	eq
 80005ee:	ea20 70d3 	biceq.w	r0, r0, r3, lsr #31
 80005f2:	bd70      	pop	{r4, r5, r6, pc}
 80005f4:	f1c4 040c 	rsb	r4, r4, #12
 80005f8:	f1c4 0520 	rsb	r5, r4, #32
 80005fc:	fa00 f304 	lsl.w	r3, r0, r4
 8000600:	fa20 f005 	lsr.w	r0, r0, r5
 8000604:	fa01 f204 	lsl.w	r2, r1, r4
 8000608:	ea40 0002 	orr.w	r0, r0, r2
 800060c:	f001 4100 	and.w	r1, r1, #2147483648	; 0x80000000
 8000610:	eb10 70d3 	adds.w	r0, r0, r3, lsr #31
 8000614:	f141 0100 	adc.w	r1, r1, #0
 8000618:	ea5e 0e43 	orrs.w	lr, lr, r3, lsl #1
 800061c:	bf08      	it	eq
 800061e:	ea20 70d3 	biceq.w	r0, r0, r3, lsr #31
 8000622:	bd70      	pop	{r4, r5, r6, pc}
 8000624:	f1c4 0520 	rsb	r5, r4, #32
 8000628:	fa00 f205 	lsl.w	r2, r0, r5
 800062c:	ea4e 0e02 	orr.w	lr, lr, r2
 8000630:	fa20 f304 	lsr.w	r3, r0, r4
 8000634:	fa01 f205 	lsl.w	r2, r1, r5
 8000638:	ea43 0302 	orr.w	r3, r3, r2
 800063c:	fa21 f004 	lsr.w	r0, r1, r4
 8000640:	f001 4100 	and.w	r1, r1, #2147483648	; 0x80000000
 8000644:	fa21 f204 	lsr.w	r2, r1, r4
 8000648:	ea20 0002 	bic.w	r0, r0, r2
 800064c:	eb00 70d3 	add.w	r0, r0, r3, lsr #31
 8000650:	ea5e 0e43 	orrs.w	lr, lr, r3, lsl #1
 8000654:	bf08      	it	eq
 8000656:	ea20 70d3 	biceq.w	r0, r0, r3, lsr #31
 800065a:	bd70      	pop	{r4, r5, r6, pc}
 800065c:	f094 0f00 	teq	r4, #0
 8000660:	d10f      	bne.n	8000682 <__aeabi_dmul+0x1c2>
 8000662:	f001 4600 	and.w	r6, r1, #2147483648	; 0x80000000
 8000666:	0040      	lsls	r0, r0, #1
 8000668:	eb41 0101 	adc.w	r1, r1, r1
 800066c:	f411 1f80 	tst.w	r1, #1048576	; 0x100000
 8000670:	bf08      	it	eq
 8000672:	3c01      	subeq	r4, #1
 8000674:	d0f7      	beq.n	8000666 <__aeabi_dmul+0x1a6>
 8000676:	ea41 0106 	orr.w	r1, r1, r6
 800067a:	f095 0f00 	teq	r5, #0
 800067e:	bf18      	it	ne
 8000680:	4770      	bxne	lr
 8000682:	f003 4600 	and.w	r6, r3, #2147483648	; 0x80000000
 8000686:	0052      	lsls	r2, r2, #1
 8000688:	eb43 0303 	adc.w	r3, r3, r3
 800068c:	f413 1f80 	tst.w	r3, #1048576	; 0x100000
 8000690:	bf08      	it	eq
 8000692:	3d01      	subeq	r5, #1
 8000694:	d0f7      	beq.n	8000686 <__aeabi_dmul+0x1c6>
 8000696:	ea43 0306 	orr.w	r3, r3, r6
 800069a:	4770      	bx	lr
 800069c:	ea94 0f0c 	teq	r4, ip
 80006a0:	ea0c 5513 	and.w	r5, ip, r3, lsr #20
 80006a4:	bf18      	it	ne
 80006a6:	ea95 0f0c 	teqne	r5, ip
 80006aa:	d00c      	beq.n	80006c6 <__aeabi_dmul+0x206>
 80006ac:	ea50 0641 	orrs.w	r6, r0, r1, lsl #1
 80006b0:	bf18      	it	ne
 80006b2:	ea52 0643 	orrsne.w	r6, r2, r3, lsl #1
 80006b6:	d1d1      	bne.n	800065c <__aeabi_dmul+0x19c>
 80006b8:	ea81 0103 	eor.w	r1, r1, r3
 80006bc:	f001 4100 	and.w	r1, r1, #2147483648	; 0x80000000
 80006c0:	f04f 0000 	mov.w	r0, #0
 80006c4:	bd70      	pop	{r4, r5, r6, pc}
 80006c6:	ea50 0641 	orrs.w	r6, r0, r1, lsl #1
 80006ca:	bf06      	itte	eq
 80006cc:	4610      	moveq	r0, r2
 80006ce:	4619      	moveq	r1, r3
 80006d0:	ea52 0643 	orrsne.w	r6, r2, r3, lsl #1
 80006d4:	d019      	beq.n	800070a <__aeabi_dmul+0x24a>
 80006d6:	ea94 0f0c 	teq	r4, ip
 80006da:	d102      	bne.n	80006e2 <__aeabi_dmul+0x222>
 80006dc:	ea50 3601 	orrs.w	r6, r0, r1, lsl #12
 80006e0:	d113      	bne.n	800070a <__aeabi_dmul+0x24a>
 80006e2:	ea95 0f0c 	teq	r5, ip
 80006e6:	d105      	bne.n	80006f4 <__aeabi_dmul+0x234>
 80006e8:	ea52 3603 	orrs.w	r6, r2, r3, lsl #12
 80006ec:	bf1c      	itt	ne
 80006ee:	4610      	movne	r0, r2
 80006f0:	4619      	movne	r1, r3
 80006f2:	d10a      	bne.n	800070a <__aeabi_dmul+0x24a>
 80006f4:	ea81 0103 	eor.w	r1, r1, r3
 80006f8:	f001 4100 	and.w	r1, r1, #2147483648	; 0x80000000
 80006fc:	f041 41fe 	orr.w	r1, r1, #2130706432	; 0x7f000000
 8000700:	f441 0170 	orr.w	r1, r1, #15728640	; 0xf00000
 8000704:	f04f 0000 	mov.w	r0, #0
 8000708:	bd70      	pop	{r4, r5, r6, pc}
 800070a:	f041 41fe 	orr.w	r1, r1, #2130706432	; 0x7f000000
 800070e:	f441 0178 	orr.w	r1, r1, #16252928	; 0xf80000
 8000712:	bd70      	pop	{r4, r5, r6, pc}

08000714 <__aeabi_ddiv>:
 8000714:	b570      	push	{r4, r5, r6, lr}
 8000716:	f04f 0cff 	mov.w	ip, #255	; 0xff
 800071a:	f44c 6ce0 	orr.w	ip, ip, #1792	; 0x700
 800071e:	ea1c 5411 	ands.w	r4, ip, r1, lsr #20
 8000722:	bf1d      	ittte	ne
 8000724:	ea1c 5513 	andsne.w	r5, ip, r3, lsr #20
 8000728:	ea94 0f0c 	teqne	r4, ip
 800072c:	ea95 0f0c 	teqne	r5, ip
 8000730:	f000 f8a7 	bleq	8000882 <__aeabi_ddiv+0x16e>
 8000734:	eba4 0405 	sub.w	r4, r4, r5
 8000738:	ea81 0e03 	eor.w	lr, r1, r3
 800073c:	ea52 3503 	orrs.w	r5, r2, r3, lsl #12
 8000740:	ea4f 3101 	mov.w	r1, r1, lsl #12
 8000744:	f000 8088 	beq.w	8000858 <__aeabi_ddiv+0x144>
 8000748:	ea4f 3303 	mov.w	r3, r3, lsl #12
 800074c:	f04f 5580 	mov.w	r5, #268435456	; 0x10000000
 8000750:	ea45 1313 	orr.w	r3, r5, r3, lsr #4
 8000754:	ea43 6312 	orr.w	r3, r3, r2, lsr #24
 8000758:	ea4f 2202 	mov.w	r2, r2, lsl #8
 800075c:	ea45 1511 	orr.w	r5, r5, r1, lsr #4
 8000760:	ea45 6510 	orr.w	r5, r5, r0, lsr #24
 8000764:	ea4f 2600 	mov.w	r6, r0, lsl #8
 8000768:	f00e 4100 	and.w	r1, lr, #2147483648	; 0x80000000
 800076c:	429d      	cmp	r5, r3
 800076e:	bf08      	it	eq
 8000770:	4296      	cmpeq	r6, r2
 8000772:	f144 04fd 	adc.w	r4, r4, #253	; 0xfd
 8000776:	f504 7440 	add.w	r4, r4, #768	; 0x300
 800077a:	d202      	bcs.n	8000782 <__aeabi_ddiv+0x6e>
 800077c:	085b      	lsrs	r3, r3, #1
 800077e:	ea4f 0232 	mov.w	r2, r2, rrx
 8000782:	1ab6      	subs	r6, r6, r2
 8000784:	eb65 0503 	sbc.w	r5, r5, r3
 8000788:	085b      	lsrs	r3, r3, #1
 800078a:	ea4f 0232 	mov.w	r2, r2, rrx
 800078e:	f44f 1080 	mov.w	r0, #1048576	; 0x100000
 8000792:	f44f 2c00 	mov.w	ip, #524288	; 0x80000
 8000796:	ebb6 0e02 	subs.w	lr, r6, r2
 800079a:	eb75 0e03 	sbcs.w	lr, r5, r3
 800079e:	bf22      	ittt	cs
 80007a0:	1ab6      	subcs	r6, r6, r2
 80007a2:	4675      	movcs	r5, lr
 80007a4:	ea40 000c 	orrcs.w	r0, r0, ip
 80007a8:	085b      	lsrs	r3, r3, #1
 80007aa:	ea4f 0232 	mov.w	r2, r2, rrx
 80007ae:	ebb6 0e02 	subs.w	lr, r6, r2
 80007b2:	eb75 0e03 	sbcs.w	lr, r5, r3
 80007b6:	bf22      	ittt	cs
 80007b8:	1ab6      	subcs	r6, r6, r2
 80007ba:	4675      	movcs	r5, lr
 80007bc:	ea40 005c 	orrcs.w	r0, r0, ip, lsr #1
 80007c0:	085b      	lsrs	r3, r3, #1
 80007c2:	ea4f 0232 	mov.w	r2, r2, rrx
 80007c6:	ebb6 0e02 	subs.w	lr, r6, r2
 80007ca:	eb75 0e03 	sbcs.w	lr, r5, r3
 80007ce:	bf22      	ittt	cs
 80007d0:	1ab6      	subcs	r6, r6, r2
 80007d2:	4675      	movcs	r5, lr
 80007d4:	ea40 009c 	orrcs.w	r0, r0, ip, lsr #2
 80007d8:	085b      	lsrs	r3, r3, #1
 80007da:	ea4f 0232 	mov.w	r2, r2, rrx
 80007de:	ebb6 0e02 	subs.w	lr, r6, r2
 80007e2:	eb75 0e03 	sbcs.w	lr, r5, r3
 80007e6:	bf22      	ittt	cs
 80007e8:	1ab6      	subcs	r6, r6, r2
 80007ea:	4675      	movcs	r5, lr
 80007ec:	ea40 00dc 	orrcs.w	r0, r0, ip, lsr #3
 80007f0:	ea55 0e06 	orrs.w	lr, r5, r6
 80007f4:	d018      	beq.n	8000828 <__aeabi_ddiv+0x114>
 80007f6:	ea4f 1505 	mov.w	r5, r5, lsl #4
 80007fa:	ea45 7516 	orr.w	r5, r5, r6, lsr #28
 80007fe:	ea4f 1606 	mov.w	r6, r6, lsl #4
 8000802:	ea4f 03c3 	mov.w	r3, r3, lsl #3
 8000806:	ea43 7352 	orr.w	r3, r3, r2, lsr #29
 800080a:	ea4f 02c2 	mov.w	r2, r2, lsl #3
 800080e:	ea5f 1c1c 	movs.w	ip, ip, lsr #4
 8000812:	d1c0      	bne.n	8000796 <__aeabi_ddiv+0x82>
 8000814:	f411 1f80 	tst.w	r1, #1048576	; 0x100000
 8000818:	d10b      	bne.n	8000832 <__aeabi_ddiv+0x11e>
 800081a:	ea41 0100 	orr.w	r1, r1, r0
 800081e:	f04f 0000 	mov.w	r0, #0
 8000822:	f04f 4c00 	mov.w	ip, #2147483648	; 0x80000000
 8000826:	e7b6      	b.n	8000796 <__aeabi_ddiv+0x82>
 8000828:	f411 1f80 	tst.w	r1, #1048576	; 0x100000
 800082c:	bf04      	itt	eq
 800082e:	4301      	orreq	r1, r0
 8000830:	2000      	moveq	r0, #0
 8000832:	f1b4 0cfd 	subs.w	ip, r4, #253	; 0xfd
 8000836:	bf88      	it	hi
 8000838:	f5bc 6fe0 	cmphi.w	ip, #1792	; 0x700
 800083c:	f63f aeaf 	bhi.w	800059e <__aeabi_dmul+0xde>
 8000840:	ebb5 0c03 	subs.w	ip, r5, r3
 8000844:	bf04      	itt	eq
 8000846:	ebb6 0c02 	subseq.w	ip, r6, r2
 800084a:	ea5f 0c50 	movseq.w	ip, r0, lsr #1
 800084e:	f150 0000 	adcs.w	r0, r0, #0
 8000852:	eb41 5104 	adc.w	r1, r1, r4, lsl #20
 8000856:	bd70      	pop	{r4, r5, r6, pc}
 8000858:	f00e 4e00 	and.w	lr, lr, #2147483648	; 0x80000000
 800085c:	ea4e 3111 	orr.w	r1, lr, r1, lsr #12
 8000860:	eb14 045c 	adds.w	r4, r4, ip, lsr #1
 8000864:	bfc2      	ittt	gt
 8000866:	ebd4 050c 	rsbsgt	r5, r4, ip
 800086a:	ea41 5104 	orrgt.w	r1, r1, r4, lsl #20
 800086e:	bd70      	popgt	{r4, r5, r6, pc}
 8000870:	f441 1180 	orr.w	r1, r1, #1048576	; 0x100000
 8000874:	f04f 0e00 	mov.w	lr, #0
 8000878:	3c01      	subs	r4, #1
 800087a:	e690      	b.n	800059e <__aeabi_dmul+0xde>
 800087c:	ea45 0e06 	orr.w	lr, r5, r6
 8000880:	e68d      	b.n	800059e <__aeabi_dmul+0xde>
 8000882:	ea0c 5513 	and.w	r5, ip, r3, lsr #20
 8000886:	ea94 0f0c 	teq	r4, ip
 800088a:	bf08      	it	eq
 800088c:	ea95 0f0c 	teqeq	r5, ip
 8000890:	f43f af3b 	beq.w	800070a <__aeabi_dmul+0x24a>
 8000894:	ea94 0f0c 	teq	r4, ip
 8000898:	d10a      	bne.n	80008b0 <__aeabi_ddiv+0x19c>
 800089a:	ea50 3401 	orrs.w	r4, r0, r1, lsl #12
 800089e:	f47f af34 	bne.w	800070a <__aeabi_dmul+0x24a>
 80008a2:	ea95 0f0c 	teq	r5, ip
 80008a6:	f47f af25 	bne.w	80006f4 <__aeabi_dmul+0x234>
 80008aa:	4610      	mov	r0, r2
 80008ac:	4619      	mov	r1, r3
 80008ae:	e72c      	b.n	800070a <__aeabi_dmul+0x24a>
 80008b0:	ea95 0f0c 	teq	r5, ip
 80008b4:	d106      	bne.n	80008c4 <__aeabi_ddiv+0x1b0>
 80008b6:	ea52 3503 	orrs.w	r5, r2, r3, lsl #12
 80008ba:	f43f aefd 	beq.w	80006b8 <__aeabi_dmul+0x1f8>
 80008be:	4610      	mov	r0, r2
 80008c0:	4619      	mov	r1, r3
 80008c2:	e722      	b.n	800070a <__aeabi_dmul+0x24a>
 80008c4:	ea50 0641 	orrs.w	r6, r0, r1, lsl #1
 80008c8:	bf18      	it	ne
 80008ca:	ea52 0643 	orrsne.w	r6, r2, r3, lsl #1
 80008ce:	f47f aec5 	bne.w	800065c <__aeabi_dmul+0x19c>
 80008d2:	ea50 0441 	orrs.w	r4, r0, r1, lsl #1
 80008d6:	f47f af0d 	bne.w	80006f4 <__aeabi_dmul+0x234>
 80008da:	ea52 0543 	orrs.w	r5, r2, r3, lsl #1
 80008de:	f47f aeeb 	bne.w	80006b8 <__aeabi_dmul+0x1f8>
 80008e2:	e712      	b.n	800070a <__aeabi_dmul+0x24a>

080008e4 <__aeabi_d2uiz>:
 80008e4:	004a      	lsls	r2, r1, #1
 80008e6:	d211      	bcs.n	800090c <__aeabi_d2uiz+0x28>
 80008e8:	f512 1200 	adds.w	r2, r2, #2097152	; 0x200000
 80008ec:	d211      	bcs.n	8000912 <__aeabi_d2uiz+0x2e>
 80008ee:	d50d      	bpl.n	800090c <__aeabi_d2uiz+0x28>
 80008f0:	f46f 7378 	mvn.w	r3, #992	; 0x3e0
 80008f4:	ebb3 5262 	subs.w	r2, r3, r2, asr #21
 80008f8:	d40e      	bmi.n	8000918 <__aeabi_d2uiz+0x34>
 80008fa:	ea4f 23c1 	mov.w	r3, r1, lsl #11
 80008fe:	f043 4300 	orr.w	r3, r3, #2147483648	; 0x80000000
 8000902:	ea43 5350 	orr.w	r3, r3, r0, lsr #21
 8000906:	fa23 f002 	lsr.w	r0, r3, r2
 800090a:	4770      	bx	lr
 800090c:	f04f 0000 	mov.w	r0, #0
 8000910:	4770      	bx	lr
 8000912:	ea50 3001 	orrs.w	r0, r0, r1, lsl #12
 8000916:	d102      	bne.n	800091e <__aeabi_d2uiz+0x3a>
 8000918:	f04f 30ff 	mov.w	r0, #4294967295
 800091c:	4770      	bx	lr
 800091e:	f04f 0000 	mov.w	r0, #0
 8000922:	4770      	bx	lr

08000924 <NVIC_SetPriority>:

    \param [in]      IRQn  Number of the interrupt for set priority
    \param [in]  priority  Priority to set
 */
static __INLINE void NVIC_SetPriority(IRQn_Type IRQn, uint32_t priority)
{
 8000924:	b480      	push	{r7}
 8000926:	b083      	sub	sp, #12
 8000928:	af00      	add	r7, sp, #0
 800092a:	4603      	mov	r3, r0
 800092c:	6039      	str	r1, [r7, #0]
 800092e:	71fb      	strb	r3, [r7, #7]
  if(IRQn < 0) {
 8000930:	f997 3007 	ldrsb.w	r3, [r7, #7]
 8000934:	2b00      	cmp	r3, #0
 8000936:	da0b      	bge.n	8000950 <NVIC_SetPriority+0x2c>
    SCB->SHP[((uint32_t)(IRQn) & 0xF)-4] = ((priority << (8 - __NVIC_PRIO_BITS)) & 0xff); } /* set Priority for Cortex-M  System Interrupts */
 8000938:	490d      	ldr	r1, [pc, #52]	; (8000970 <NVIC_SetPriority+0x4c>)
 800093a:	79fb      	ldrb	r3, [r7, #7]
 800093c:	f003 030f 	and.w	r3, r3, #15
 8000940:	3b04      	subs	r3, #4
 8000942:	683a      	ldr	r2, [r7, #0]
 8000944:	b2d2      	uxtb	r2, r2
 8000946:	0112      	lsls	r2, r2, #4
 8000948:	b2d2      	uxtb	r2, r2
 800094a:	440b      	add	r3, r1
 800094c:	761a      	strb	r2, [r3, #24]
  else {
    NVIC->IP[(uint32_t)(IRQn)] = ((priority << (8 - __NVIC_PRIO_BITS)) & 0xff);    }        /* set Priority for device specific Interrupts  */
}
 800094e:	e009      	b.n	8000964 <NVIC_SetPriority+0x40>
    NVIC->IP[(uint32_t)(IRQn)] = ((priority << (8 - __NVIC_PRIO_BITS)) & 0xff);    }        /* set Priority for device specific Interrupts  */
 8000950:	4908      	ldr	r1, [pc, #32]	; (8000974 <NVIC_SetPriority+0x50>)
 8000952:	f997 3007 	ldrsb.w	r3, [r7, #7]
 8000956:	683a      	ldr	r2, [r7, #0]
 8000958:	b2d2      	uxtb	r2, r2
 800095a:	0112      	lsls	r2, r2, #4
 800095c:	b2d2      	uxtb	r2, r2
 800095e:	440b      	add	r3, r1
 8000960:	f883 2300 	strb.w	r2, [r3, #768]	; 0x300
}
 8000964:	bf00      	nop
 8000966:	370c      	adds	r7, #12
 8000968:	46bd      	mov	sp, r7
 800096a:	bc80      	pop	{r7}
 800096c:	4770      	bx	lr
 800096e:	bf00      	nop
 8000970:	e000ed00 	.word	0xe000ed00
 8000974:	e000e100 	.word	0xe000e100

08000978 <SysTick_Config>:
    \param [in]  ticks  Number of ticks between two interrupts
    \return          0  Function succeeded
    \return          1  Function failed
 */
static __INLINE uint32_t SysTick_Config(uint32_t ticks)
{
 8000978:	b580      	push	{r7, lr}
 800097a:	b082      	sub	sp, #8
 800097c:	af00      	add	r7, sp, #0
 800097e:	6078      	str	r0, [r7, #4]
  if (ticks > SysTick_LOAD_RELOAD_Msk)  return (1);            /* Reload value impossible */
 8000980:	687b      	ldr	r3, [r7, #4]
 8000982:	f1b3 7f80 	cmp.w	r3, #16777216	; 0x1000000
 8000986:	d301      	bcc.n	800098c <SysTick_Config+0x14>
 8000988:	2301      	movs	r3, #1
 800098a:	e011      	b.n	80009b0 <SysTick_Config+0x38>

  SysTick->LOAD  = (ticks & SysTick_LOAD_RELOAD_Msk) - 1;      /* set reload register */
 800098c:	4a0a      	ldr	r2, [pc, #40]	; (80009b8 <SysTick_Config+0x40>)
 800098e:	687b      	ldr	r3, [r7, #4]
 8000990:	f023 437f 	bic.w	r3, r3, #4278190080	; 0xff000000
 8000994:	3b01      	subs	r3, #1
 8000996:	6053      	str	r3, [r2, #4]
  NVIC_SetPriority (SysTick_IRQn, (1<<__NVIC_PRIO_BITS) - 1);  /* set Priority for Cortex-M0 System Interrupts */
 8000998:	210f      	movs	r1, #15
 800099a:	f04f 30ff 	mov.w	r0, #4294967295
 800099e:	f7ff ffc1 	bl	8000924 <NVIC_SetPriority>
  SysTick->VAL   = 0;                                          /* Load the SysTick Counter Value */
 80009a2:	4b05      	ldr	r3, [pc, #20]	; (80009b8 <SysTick_Config+0x40>)
 80009a4:	2200      	movs	r2, #0
 80009a6:	609a      	str	r2, [r3, #8]
  SysTick->CTRL  = SysTick_CTRL_CLKSOURCE_Msk |
 80009a8:	4b03      	ldr	r3, [pc, #12]	; (80009b8 <SysTick_Config+0x40>)
 80009aa:	2207      	movs	r2, #7
 80009ac:	601a      	str	r2, [r3, #0]
                   SysTick_CTRL_TICKINT_Msk   |
                   SysTick_CTRL_ENABLE_Msk;                    /* Enable SysTick IRQ and SysTick Timer */
  return (0);                                                  /* Function successful */
 80009ae:	2300      	movs	r3, #0
}
 80009b0:	4618      	mov	r0, r3
 80009b2:	3708      	adds	r7, #8
 80009b4:	46bd      	mov	sp, r7
 80009b6:	bd80      	pop	{r7, pc}
 80009b8:	e000e010 	.word	0xe000e010

080009bc <SysTick_Delay>:
 * @note    SysTick will be update with IRQ callback
 * @param   Waiting time in milliseconds
 * @retval  None
 */
void SysTick_Delay(uint32_t wait_time_ms)
{
 80009bc:	b480      	push	{r7}
 80009be:	b085      	sub	sp, #20
 80009c0:	af00      	add	r7, sp, #0
 80009c2:	6078      	str	r0, [r7, #4]
  /* Store start tick */
  uint32_t startTick = SysTickCounter;
 80009c4:	4b07      	ldr	r3, [pc, #28]	; (80009e4 <SysTick_Delay+0x28>)
 80009c6:	681b      	ldr	r3, [r3, #0]
 80009c8:	60fb      	str	r3, [r7, #12]

  /* Loop until timeout */
  while((SysTickCounter - startTick) < wait_time_ms)
 80009ca:	bf00      	nop
 80009cc:	4b05      	ldr	r3, [pc, #20]	; (80009e4 <SysTick_Delay+0x28>)
 80009ce:	681a      	ldr	r2, [r3, #0]
 80009d0:	68fb      	ldr	r3, [r7, #12]
 80009d2:	1ad2      	subs	r2, r2, r3
 80009d4:	687b      	ldr	r3, [r7, #4]
 80009d6:	429a      	cmp	r2, r3
 80009d8:	d3f8      	bcc.n	80009cc <SysTick_Delay+0x10>
  {

  }
}
 80009da:	bf00      	nop
 80009dc:	3714      	adds	r7, #20
 80009de:	46bd      	mov	sp, r7
 80009e0:	bc80      	pop	{r7}
 80009e2:	4770      	bx	lr
 80009e4:	20000030 	.word	0x20000030

080009e8 <SysTick_Init>:
 * @note
 * @param   None
 * @retval  None
 */
void SysTick_Init(void)
{
 80009e8:	b580      	push	{r7, lr}
 80009ea:	b082      	sub	sp, #8
 80009ec:	af00      	add	r7, sp, #0
  uint32_t returnCode;

  /* Update clock configuration */
  SystemCoreClockUpdate();
 80009ee:	f000 fd0f 	bl	8001410 <SystemCoreClockUpdate>

  /* Check clock configuration */
  if(SystemCoreClock != (uint32_t) 8000000)
 80009f2:	4b0e      	ldr	r3, [pc, #56]	; (8000a2c <SysTick_Init+0x44>)
 80009f4:	681b      	ldr	r3, [r3, #0]
 80009f6:	4a0e      	ldr	r2, [pc, #56]	; (8000a30 <SysTick_Init+0x48>)
 80009f8:	4293      	cmp	r3, r2
 80009fa:	d000      	beq.n	80009fe <SysTick_Init+0x16>
  {
    /* Clock configuration is not OK */
    while(1)
 80009fc:	e7fe      	b.n	80009fc <SysTick_Init+0x14>
  {
    /* Clock configuration is OK */
  }

  /* Configure SysTick to generate an interrupt every millisecond */
  returnCode = SysTick_Config(SystemCoreClock / 1000);
 80009fe:	4b0b      	ldr	r3, [pc, #44]	; (8000a2c <SysTick_Init+0x44>)
 8000a00:	681b      	ldr	r3, [r3, #0]
 8000a02:	4a0c      	ldr	r2, [pc, #48]	; (8000a34 <SysTick_Init+0x4c>)
 8000a04:	fba2 2303 	umull	r2, r3, r2, r3
 8000a08:	099b      	lsrs	r3, r3, #6
 8000a0a:	4618      	mov	r0, r3
 8000a0c:	f7ff ffb4 	bl	8000978 <SysTick_Config>
 8000a10:	6078      	str	r0, [r7, #4]

  /* Check return code for errors */
  if (returnCode != 0)
 8000a12:	687b      	ldr	r3, [r7, #4]
 8000a14:	2b00      	cmp	r3, #0
 8000a16:	d000      	beq.n	8000a1a <SysTick_Init+0x32>
  {
    /* SysTick configuration failed */
    while(1)
 8000a18:	e7fe      	b.n	8000a18 <SysTick_Init+0x30>
  }
  else
  {
    /* Do nothing, SysTick configuration OK */
  }
  NVIC_SetPriority(SysTick_IRQn,  0);
 8000a1a:	2100      	movs	r1, #0
 8000a1c:	f04f 30ff 	mov.w	r0, #4294967295
 8000a20:	f7ff ff80 	bl	8000924 <NVIC_SetPriority>
}
 8000a24:	bf00      	nop
 8000a26:	3708      	adds	r7, #8
 8000a28:	46bd      	mov	sp, r7
 8000a2a:	bd80      	pop	{r7, pc}
 8000a2c:	20000000 	.word	0x20000000
 8000a30:	007a1200 	.word	0x007a1200
 8000a34:	10624dd3 	.word	0x10624dd3

08000a38 <GPIO_OnBoard_Init_LED>:
 * @note    Yellow_LED -> PC13
 * @param   None
 * @retval  None
 */
void GPIO_OnBoard_Init_LED(void)
{
 8000a38:	b480      	push	{r7}
 8000a3a:	af00      	add	r7, sp, #0
 /* Enable clock for GPIOC */
    RCC ->APB2ENR |= RCC_APB2ENR_IOPCEN;
 8000a3c:	4a10      	ldr	r2, [pc, #64]	; (8000a80 <GPIO_OnBoard_Init_LED+0x48>)
 8000a3e:	4b10      	ldr	r3, [pc, #64]	; (8000a80 <GPIO_OnBoard_Init_LED+0x48>)
 8000a40:	699b      	ldr	r3, [r3, #24]
 8000a42:	f043 0310 	orr.w	r3, r3, #16
 8000a46:	6193      	str	r3, [r2, #24]
 /* Configure PC.13 in output mode, max speed 2 MHz. */
    GPIOC ->CRH &= ~GPIO_CRH_MODE13;
 8000a48:	4a0e      	ldr	r2, [pc, #56]	; (8000a84 <GPIO_OnBoard_Init_LED+0x4c>)
 8000a4a:	4b0e      	ldr	r3, [pc, #56]	; (8000a84 <GPIO_OnBoard_Init_LED+0x4c>)
 8000a4c:	685b      	ldr	r3, [r3, #4]
 8000a4e:	f423 1340 	bic.w	r3, r3, #3145728	; 0x300000
 8000a52:	6053      	str	r3, [r2, #4]
    GPIOC ->CRH |=  GPIO_CRH_MODE13_1;
 8000a54:	4a0b      	ldr	r2, [pc, #44]	; (8000a84 <GPIO_OnBoard_Init_LED+0x4c>)
 8000a56:	4b0b      	ldr	r3, [pc, #44]	; (8000a84 <GPIO_OnBoard_Init_LED+0x4c>)
 8000a58:	685b      	ldr	r3, [r3, #4]
 8000a5a:	f443 1300 	orr.w	r3, r3, #2097152	; 0x200000
 8000a5e:	6053      	str	r3, [r2, #4]
 /* Configure PC.13 as  general purpose output push-pull */
    GPIOC ->CRH  &= ~GPIO_CRH_CNF13;
 8000a60:	4a08      	ldr	r2, [pc, #32]	; (8000a84 <GPIO_OnBoard_Init_LED+0x4c>)
 8000a62:	4b08      	ldr	r3, [pc, #32]	; (8000a84 <GPIO_OnBoard_Init_LED+0x4c>)
 8000a64:	685b      	ldr	r3, [r3, #4]
 8000a66:	f423 0340 	bic.w	r3, r3, #12582912	; 0xc00000
 8000a6a:	6053      	str	r3, [r2, #4]
 /* Led OFF */
    GPIOC ->ODR  |= GPIO_ODR_ODR13;
 8000a6c:	4a05      	ldr	r2, [pc, #20]	; (8000a84 <GPIO_OnBoard_Init_LED+0x4c>)
 8000a6e:	4b05      	ldr	r3, [pc, #20]	; (8000a84 <GPIO_OnBoard_Init_LED+0x4c>)
 8000a70:	68db      	ldr	r3, [r3, #12]
 8000a72:	f443 5300 	orr.w	r3, r3, #8192	; 0x2000
 8000a76:	60d3      	str	r3, [r2, #12]

}
 8000a78:	bf00      	nop
 8000a7a:	46bd      	mov	sp, r7
 8000a7c:	bc80      	pop	{r7}
 8000a7e:	4770      	bx	lr
 8000a80:	40021000 	.word	0x40021000
 8000a84:	40011000 	.word	0x40011000

08000a88 <GPIO_USART1_Init>:
 * @note    PA9 -> USART1_TX, PA10 -> USART1_RX
 * @param   None
 * @retval  None
 */
void GPIO_USART1_Init(void)
{
 8000a88:	b480      	push	{r7}
 8000a8a:	af00      	add	r7, sp, #0
 /* GPIOA clock enable */
  	RCC ->APB2ENR   |= RCC_APB2ENR_IOPAEN;
 8000a8c:	4a19      	ldr	r2, [pc, #100]	; (8000af4 <GPIO_USART1_Init+0x6c>)
 8000a8e:	4b19      	ldr	r3, [pc, #100]	; (8000af4 <GPIO_USART1_Init+0x6c>)
 8000a90:	699b      	ldr	r3, [r3, #24]
 8000a92:	f043 0304 	orr.w	r3, r3, #4
 8000a96:	6193      	str	r3, [r2, #24]

 /* PA9 TX: Output mode, max speed 2 MHz. */
	GPIOA ->CRH     &= ~GPIO_CRH_MODE9;
 8000a98:	4a17      	ldr	r2, [pc, #92]	; (8000af8 <GPIO_USART1_Init+0x70>)
 8000a9a:	4b17      	ldr	r3, [pc, #92]	; (8000af8 <GPIO_USART1_Init+0x70>)
 8000a9c:	685b      	ldr	r3, [r3, #4]
 8000a9e:	f023 0330 	bic.w	r3, r3, #48	; 0x30
 8000aa2:	6053      	str	r3, [r2, #4]
	GPIOA ->CRH     |=  GPIO_CRH_MODE9_1;
 8000aa4:	4a14      	ldr	r2, [pc, #80]	; (8000af8 <GPIO_USART1_Init+0x70>)
 8000aa6:	4b14      	ldr	r3, [pc, #80]	; (8000af8 <GPIO_USART1_Init+0x70>)
 8000aa8:	685b      	ldr	r3, [r3, #4]
 8000aaa:	f043 0320 	orr.w	r3, r3, #32
 8000aae:	6053      	str	r3, [r2, #4]

 /* PA9 TX: Alternate function output Push-pull */
  	GPIOA ->CRH     &= ~GPIO_CRH_CNF9;
 8000ab0:	4a11      	ldr	r2, [pc, #68]	; (8000af8 <GPIO_USART1_Init+0x70>)
 8000ab2:	4b11      	ldr	r3, [pc, #68]	; (8000af8 <GPIO_USART1_Init+0x70>)
 8000ab4:	685b      	ldr	r3, [r3, #4]
 8000ab6:	f023 03c0 	bic.w	r3, r3, #192	; 0xc0
 8000aba:	6053      	str	r3, [r2, #4]
    GPIOA ->CRH     |=  GPIO_CRH_CNF9_1;
 8000abc:	4a0e      	ldr	r2, [pc, #56]	; (8000af8 <GPIO_USART1_Init+0x70>)
 8000abe:	4b0e      	ldr	r3, [pc, #56]	; (8000af8 <GPIO_USART1_Init+0x70>)
 8000ac0:	685b      	ldr	r3, [r3, #4]
 8000ac2:	f043 0380 	orr.w	r3, r3, #128	; 0x80
 8000ac6:	6053      	str	r3, [r2, #4]

 /* PA10 RX: Floating input */
  	GPIOA ->CRH     &= ~GPIO_CRH_CNF10;
 8000ac8:	4a0b      	ldr	r2, [pc, #44]	; (8000af8 <GPIO_USART1_Init+0x70>)
 8000aca:	4b0b      	ldr	r3, [pc, #44]	; (8000af8 <GPIO_USART1_Init+0x70>)
 8000acc:	685b      	ldr	r3, [r3, #4]
 8000ace:	f423 6340 	bic.w	r3, r3, #3072	; 0xc00
 8000ad2:	6053      	str	r3, [r2, #4]
    GPIOA ->CRH     |=  GPIO_CRH_CNF10_0;
 8000ad4:	4a08      	ldr	r2, [pc, #32]	; (8000af8 <GPIO_USART1_Init+0x70>)
 8000ad6:	4b08      	ldr	r3, [pc, #32]	; (8000af8 <GPIO_USART1_Init+0x70>)
 8000ad8:	685b      	ldr	r3, [r3, #4]
 8000ada:	f443 6380 	orr.w	r3, r3, #1024	; 0x400
 8000ade:	6053      	str	r3, [r2, #4]

 /* PA10 RX: Input mode */
  	GPIOA ->CRH     &= ~GPIO_CRH_MODE10;
 8000ae0:	4a05      	ldr	r2, [pc, #20]	; (8000af8 <GPIO_USART1_Init+0x70>)
 8000ae2:	4b05      	ldr	r3, [pc, #20]	; (8000af8 <GPIO_USART1_Init+0x70>)
 8000ae4:	685b      	ldr	r3, [r3, #4]
 8000ae6:	f423 7340 	bic.w	r3, r3, #768	; 0x300
 8000aea:	6053      	str	r3, [r2, #4]

}
 8000aec:	bf00      	nop
 8000aee:	46bd      	mov	sp, r7
 8000af0:	bc80      	pop	{r7}
 8000af2:	4770      	bx	lr
 8000af4:	40021000 	.word	0x40021000
 8000af8:	40010800 	.word	0x40010800

08000afc <GPIO_USART2_Init>:
 * @note    PB10 -> USART1_TX, PB11 -> USART1_RX
 * @param   None
 * @retval  None
 */
void GPIO_USART2_Init(void)
{
 8000afc:	b480      	push	{r7}
 8000afe:	af00      	add	r7, sp, #0
 /* GPIOA clock enable */
  	RCC ->APB2ENR   |= RCC_APB2ENR_IOPBEN;
 8000b00:	4a19      	ldr	r2, [pc, #100]	; (8000b68 <GPIO_USART2_Init+0x6c>)
 8000b02:	4b19      	ldr	r3, [pc, #100]	; (8000b68 <GPIO_USART2_Init+0x6c>)
 8000b04:	699b      	ldr	r3, [r3, #24]
 8000b06:	f043 0308 	orr.w	r3, r3, #8
 8000b0a:	6193      	str	r3, [r2, #24]

 /* PB10 TX: Output mode, max speed 2 MHz. */
	GPIOB ->CRH     &= ~GPIO_CRH_MODE10;
 8000b0c:	4a17      	ldr	r2, [pc, #92]	; (8000b6c <GPIO_USART2_Init+0x70>)
 8000b0e:	4b17      	ldr	r3, [pc, #92]	; (8000b6c <GPIO_USART2_Init+0x70>)
 8000b10:	685b      	ldr	r3, [r3, #4]
 8000b12:	f423 7340 	bic.w	r3, r3, #768	; 0x300
 8000b16:	6053      	str	r3, [r2, #4]
	GPIOB ->CRH     |=  GPIO_CRH_MODE10_1;
 8000b18:	4a14      	ldr	r2, [pc, #80]	; (8000b6c <GPIO_USART2_Init+0x70>)
 8000b1a:	4b14      	ldr	r3, [pc, #80]	; (8000b6c <GPIO_USART2_Init+0x70>)
 8000b1c:	685b      	ldr	r3, [r3, #4]
 8000b1e:	f443 7300 	orr.w	r3, r3, #512	; 0x200
 8000b22:	6053      	str	r3, [r2, #4]

 /* PB10 TX: Alternate function output Push-pull */
	GPIOB ->CRH     &= ~GPIO_CRH_CNF10;
 8000b24:	4a11      	ldr	r2, [pc, #68]	; (8000b6c <GPIO_USART2_Init+0x70>)
 8000b26:	4b11      	ldr	r3, [pc, #68]	; (8000b6c <GPIO_USART2_Init+0x70>)
 8000b28:	685b      	ldr	r3, [r3, #4]
 8000b2a:	f423 6340 	bic.w	r3, r3, #3072	; 0xc00
 8000b2e:	6053      	str	r3, [r2, #4]
	GPIOB ->CRH     |=  GPIO_CRH_CNF10_1;
 8000b30:	4a0e      	ldr	r2, [pc, #56]	; (8000b6c <GPIO_USART2_Init+0x70>)
 8000b32:	4b0e      	ldr	r3, [pc, #56]	; (8000b6c <GPIO_USART2_Init+0x70>)
 8000b34:	685b      	ldr	r3, [r3, #4]
 8000b36:	f443 6300 	orr.w	r3, r3, #2048	; 0x800
 8000b3a:	6053      	str	r3, [r2, #4]

 /* PB11 RX: Floating input */
	GPIOB ->CRH     &= ~GPIO_CRH_CNF11;
 8000b3c:	4a0b      	ldr	r2, [pc, #44]	; (8000b6c <GPIO_USART2_Init+0x70>)
 8000b3e:	4b0b      	ldr	r3, [pc, #44]	; (8000b6c <GPIO_USART2_Init+0x70>)
 8000b40:	685b      	ldr	r3, [r3, #4]
 8000b42:	f423 4340 	bic.w	r3, r3, #49152	; 0xc000
 8000b46:	6053      	str	r3, [r2, #4]
	GPIOB ->CRH     |=  GPIO_CRH_CNF11_0;
 8000b48:	4a08      	ldr	r2, [pc, #32]	; (8000b6c <GPIO_USART2_Init+0x70>)
 8000b4a:	4b08      	ldr	r3, [pc, #32]	; (8000b6c <GPIO_USART2_Init+0x70>)
 8000b4c:	685b      	ldr	r3, [r3, #4]
 8000b4e:	f443 4380 	orr.w	r3, r3, #16384	; 0x4000
 8000b52:	6053      	str	r3, [r2, #4]

 /* PB11 RX: Input mode */
	GPIOB ->CRH     &= ~GPIO_CRH_MODE11;
 8000b54:	4a05      	ldr	r2, [pc, #20]	; (8000b6c <GPIO_USART2_Init+0x70>)
 8000b56:	4b05      	ldr	r3, [pc, #20]	; (8000b6c <GPIO_USART2_Init+0x70>)
 8000b58:	685b      	ldr	r3, [r3, #4]
 8000b5a:	f423 5340 	bic.w	r3, r3, #12288	; 0x3000
 8000b5e:	6053      	str	r3, [r2, #4]

}
 8000b60:	bf00      	nop
 8000b62:	46bd      	mov	sp, r7
 8000b64:	bc80      	pop	{r7}
 8000b66:	4770      	bx	lr
 8000b68:	40021000 	.word	0x40021000
 8000b6c:	40010c00 	.word	0x40010c00

08000b70 <NVIC_SetPriorityGrouping>:
{
 8000b70:	b480      	push	{r7}
 8000b72:	b085      	sub	sp, #20
 8000b74:	af00      	add	r7, sp, #0
 8000b76:	6078      	str	r0, [r7, #4]
  uint32_t PriorityGroupTmp = (PriorityGroup & (uint32_t)0x07);               /* only values 0..7 are used          */
 8000b78:	687b      	ldr	r3, [r7, #4]
 8000b7a:	f003 0307 	and.w	r3, r3, #7
 8000b7e:	60fb      	str	r3, [r7, #12]
  reg_value  =  SCB->AIRCR;                                                   /* read old register configuration    */
 8000b80:	4b0c      	ldr	r3, [pc, #48]	; (8000bb4 <NVIC_SetPriorityGrouping+0x44>)
 8000b82:	68db      	ldr	r3, [r3, #12]
 8000b84:	60bb      	str	r3, [r7, #8]
  reg_value &= ~(SCB_AIRCR_VECTKEY_Msk | SCB_AIRCR_PRIGROUP_Msk);             /* clear bits to change               */
 8000b86:	68ba      	ldr	r2, [r7, #8]
 8000b88:	f64f 03ff 	movw	r3, #63743	; 0xf8ff
 8000b8c:	4013      	ands	r3, r2
 8000b8e:	60bb      	str	r3, [r7, #8]
                (PriorityGroupTmp << 8));                                     /* Insert write key and priorty group */
 8000b90:	68fb      	ldr	r3, [r7, #12]
 8000b92:	021a      	lsls	r2, r3, #8
                ((uint32_t)0x5FA << SCB_AIRCR_VECTKEY_Pos) |
 8000b94:	68bb      	ldr	r3, [r7, #8]
 8000b96:	4313      	orrs	r3, r2
  reg_value  =  (reg_value                                 |
 8000b98:	f043 63bf 	orr.w	r3, r3, #100139008	; 0x5f80000
 8000b9c:	f443 3300 	orr.w	r3, r3, #131072	; 0x20000
 8000ba0:	60bb      	str	r3, [r7, #8]
  SCB->AIRCR =  reg_value;
 8000ba2:	4a04      	ldr	r2, [pc, #16]	; (8000bb4 <NVIC_SetPriorityGrouping+0x44>)
 8000ba4:	68bb      	ldr	r3, [r7, #8]
 8000ba6:	60d3      	str	r3, [r2, #12]
}
 8000ba8:	bf00      	nop
 8000baa:	3714      	adds	r7, #20
 8000bac:	46bd      	mov	sp, r7
 8000bae:	bc80      	pop	{r7}
 8000bb0:	4770      	bx	lr
 8000bb2:	bf00      	nop
 8000bb4:	e000ed00 	.word	0xe000ed00

08000bb8 <NVIC_EnableIRQ>:
{
 8000bb8:	b480      	push	{r7}
 8000bba:	b083      	sub	sp, #12
 8000bbc:	af00      	add	r7, sp, #0
 8000bbe:	4603      	mov	r3, r0
 8000bc0:	71fb      	strb	r3, [r7, #7]
  NVIC->ISER[((uint32_t)(IRQn) >> 5)] = (1 << ((uint32_t)(IRQn) & 0x1F)); /* enable interrupt */
 8000bc2:	4908      	ldr	r1, [pc, #32]	; (8000be4 <NVIC_EnableIRQ+0x2c>)
 8000bc4:	f997 3007 	ldrsb.w	r3, [r7, #7]
 8000bc8:	095b      	lsrs	r3, r3, #5
 8000bca:	79fa      	ldrb	r2, [r7, #7]
 8000bcc:	f002 021f 	and.w	r2, r2, #31
 8000bd0:	2001      	movs	r0, #1
 8000bd2:	fa00 f202 	lsl.w	r2, r0, r2
 8000bd6:	f841 2023 	str.w	r2, [r1, r3, lsl #2]
}
 8000bda:	bf00      	nop
 8000bdc:	370c      	adds	r7, #12
 8000bde:	46bd      	mov	sp, r7
 8000be0:	bc80      	pop	{r7}
 8000be2:	4770      	bx	lr
 8000be4:	e000e100 	.word	0xe000e100

08000be8 <NVIC_SetPriority>:
{
 8000be8:	b480      	push	{r7}
 8000bea:	b083      	sub	sp, #12
 8000bec:	af00      	add	r7, sp, #0
 8000bee:	4603      	mov	r3, r0
 8000bf0:	6039      	str	r1, [r7, #0]
 8000bf2:	71fb      	strb	r3, [r7, #7]
  if(IRQn < 0) {
 8000bf4:	f997 3007 	ldrsb.w	r3, [r7, #7]
 8000bf8:	2b00      	cmp	r3, #0
 8000bfa:	da0b      	bge.n	8000c14 <NVIC_SetPriority+0x2c>
    SCB->SHP[((uint32_t)(IRQn) & 0xF)-4] = ((priority << (8 - __NVIC_PRIO_BITS)) & 0xff); } /* set Priority for Cortex-M  System Interrupts */
 8000bfc:	490d      	ldr	r1, [pc, #52]	; (8000c34 <NVIC_SetPriority+0x4c>)
 8000bfe:	79fb      	ldrb	r3, [r7, #7]
 8000c00:	f003 030f 	and.w	r3, r3, #15
 8000c04:	3b04      	subs	r3, #4
 8000c06:	683a      	ldr	r2, [r7, #0]
 8000c08:	b2d2      	uxtb	r2, r2
 8000c0a:	0112      	lsls	r2, r2, #4
 8000c0c:	b2d2      	uxtb	r2, r2
 8000c0e:	440b      	add	r3, r1
 8000c10:	761a      	strb	r2, [r3, #24]
}
 8000c12:	e009      	b.n	8000c28 <NVIC_SetPriority+0x40>
    NVIC->IP[(uint32_t)(IRQn)] = ((priority << (8 - __NVIC_PRIO_BITS)) & 0xff);    }        /* set Priority for device specific Interrupts  */
 8000c14:	4908      	ldr	r1, [pc, #32]	; (8000c38 <NVIC_SetPriority+0x50>)
 8000c16:	f997 3007 	ldrsb.w	r3, [r7, #7]
 8000c1a:	683a      	ldr	r2, [r7, #0]
 8000c1c:	b2d2      	uxtb	r2, r2
 8000c1e:	0112      	lsls	r2, r2, #4
 8000c20:	b2d2      	uxtb	r2, r2
 8000c22:	440b      	add	r3, r1
 8000c24:	f883 2300 	strb.w	r2, [r3, #768]	; 0x300
}
 8000c28:	bf00      	nop
 8000c2a:	370c      	adds	r7, #12
 8000c2c:	46bd      	mov	sp, r7
 8000c2e:	bc80      	pop	{r7}
 8000c30:	4770      	bx	lr
 8000c32:	bf00      	nop
 8000c34:	e000ed00 	.word	0xe000ed00
 8000c38:	e000e100 	.word	0xe000e100

08000c3c <NVIC_Init>:
 * @note
 * @param   None
 * @retval  None
 */
void NVIC_Init(void)
{
 8000c3c:	b580      	push	{r7, lr}
 8000c3e:	af00      	add	r7, sp, #0
	  /* Set priority group to 3
	   * bits[3:0] are the sub-priority,
	   * bits[7:4] are the pre-empt priority */

	  NVIC_SetPriorityGrouping(3);
 8000c40:	2003      	movs	r0, #3
 8000c42:	f7ff ff95 	bl	8000b70 <NVIC_SetPriorityGrouping>

	  /* Set priority levels */
	  NVIC_SetPriority(EXTI0_IRQn, 1);
 8000c46:	2101      	movs	r1, #1
 8000c48:	2006      	movs	r0, #6
 8000c4a:	f7ff ffcd 	bl	8000be8 <NVIC_SetPriority>
	  NVIC_SetPriority(DMA1_Channel3_IRQn, 2);
 8000c4e:	2102      	movs	r1, #2
 8000c50:	200d      	movs	r0, #13
 8000c52:	f7ff ffc9 	bl	8000be8 <NVIC_SetPriority>
	  NVIC_SetPriority(USART1_IRQn,1);
 8000c56:	2101      	movs	r1, #1
 8000c58:	2025      	movs	r0, #37	; 0x25
 8000c5a:	f7ff ffc5 	bl	8000be8 <NVIC_SetPriority>

	  /* Enable interrupts at NVIC */
	  NVIC_EnableIRQ(EXTI0_IRQn);
 8000c5e:	2006      	movs	r0, #6
 8000c60:	f7ff ffaa 	bl	8000bb8 <NVIC_EnableIRQ>
	  NVIC_EnableIRQ(DMA1_Channel3_IRQn);
 8000c64:	200d      	movs	r0, #13
 8000c66:	f7ff ffa7 	bl	8000bb8 <NVIC_EnableIRQ>
	  NVIC_EnableIRQ(USART1_IRQn);
 8000c6a:	2025      	movs	r0, #37	; 0x25
 8000c6c:	f7ff ffa4 	bl	8000bb8 <NVIC_EnableIRQ>


}
 8000c70:	bf00      	nop
 8000c72:	bd80      	pop	{r7, pc}

08000c74 <strCmp>:
 * @param   str1, str2, size
 * @retval  strCmpReturnType
 */
static strCmpReturnType strCmp(const char * str1, const char * str2,
    const uint8_t size)
{
 8000c74:	b480      	push	{r7}
 8000c76:	b087      	sub	sp, #28
 8000c78:	af00      	add	r7, sp, #0
 8000c7a:	60f8      	str	r0, [r7, #12]
 8000c7c:	60b9      	str	r1, [r7, #8]
 8000c7e:	4613      	mov	r3, r2
 8000c80:	71fb      	strb	r3, [r7, #7]
  /* Compare status */
  strCmpReturnType cmpStatus = STR_EQUAL;
 8000c82:	2301      	movs	r3, #1
 8000c84:	75fb      	strb	r3, [r7, #23]

  /* Check null pointers */
  if((NULL != str1) && (NULL != str2))
 8000c86:	68fb      	ldr	r3, [r7, #12]
 8000c88:	2b00      	cmp	r3, #0
 8000c8a:	d018      	beq.n	8000cbe <strCmp+0x4a>
 8000c8c:	68bb      	ldr	r3, [r7, #8]
 8000c8e:	2b00      	cmp	r3, #0
 8000c90:	d015      	beq.n	8000cbe <strCmp+0x4a>
  {
    /* Start comparing */
    for (int idx = 0; idx < size; idx++)
 8000c92:	2300      	movs	r3, #0
 8000c94:	613b      	str	r3, [r7, #16]
 8000c96:	e00e      	b.n	8000cb6 <strCmp+0x42>
    {
      /* When not equal set the return status */
      if(str1[idx] != str2[idx])
 8000c98:	693b      	ldr	r3, [r7, #16]
 8000c9a:	68fa      	ldr	r2, [r7, #12]
 8000c9c:	4413      	add	r3, r2
 8000c9e:	781a      	ldrb	r2, [r3, #0]
 8000ca0:	693b      	ldr	r3, [r7, #16]
 8000ca2:	68b9      	ldr	r1, [r7, #8]
 8000ca4:	440b      	add	r3, r1
 8000ca6:	781b      	ldrb	r3, [r3, #0]
 8000ca8:	429a      	cmp	r2, r3
 8000caa:	d001      	beq.n	8000cb0 <strCmp+0x3c>
      {
        cmpStatus = STR_NOT_EQUAL;
 8000cac:	2300      	movs	r3, #0
 8000cae:	75fb      	strb	r3, [r7, #23]
    for (int idx = 0; idx < size; idx++)
 8000cb0:	693b      	ldr	r3, [r7, #16]
 8000cb2:	3301      	adds	r3, #1
 8000cb4:	613b      	str	r3, [r7, #16]
 8000cb6:	79fa      	ldrb	r2, [r7, #7]
 8000cb8:	693b      	ldr	r3, [r7, #16]
 8000cba:	429a      	cmp	r2, r3
 8000cbc:	dcec      	bgt.n	8000c98 <strCmp+0x24>
  }
  else
  {
    /* Null pointers, do nothing */
  }
  return cmpStatus;
 8000cbe:	7dfb      	ldrb	r3, [r7, #23]
}
 8000cc0:	4618      	mov	r0, r3
 8000cc2:	371c      	adds	r7, #28
 8000cc4:	46bd      	mov	sp, r7
 8000cc6:	bc80      	pop	{r7}
 8000cc8:	4770      	bx	lr
	...

08000ccc <USART1_IRQ_Callback>:
 * @note
 * @param   None
 * @retval  None
 */
void USART1_IRQ_Callback(void)
{
 8000ccc:	b480      	push	{r7}
 8000cce:	af00      	add	r7, sp, #0
  /* Check if parity error detected */
  if((USART1->SR & USART_SR_PE) == USART_SR_PE)
 8000cd0:	4b13      	ldr	r3, [pc, #76]	; (8000d20 <USART1_IRQ_Callback+0x54>)
 8000cd2:	881b      	ldrh	r3, [r3, #0]
 8000cd4:	b29b      	uxth	r3, r3
 8000cd6:	f003 0301 	and.w	r3, r3, #1
 8000cda:	2b01      	cmp	r3, #1
 8000cdc:	d10c      	bne.n	8000cf8 <USART1_IRQ_Callback+0x2c>
  {
    while((USART1->SR & USART_SR_RXNE) != USART_SR_RXNE)
 8000cde:	bf00      	nop
 8000ce0:	4b0f      	ldr	r3, [pc, #60]	; (8000d20 <USART1_IRQ_Callback+0x54>)
 8000ce2:	881b      	ldrh	r3, [r3, #0]
 8000ce4:	b29b      	uxth	r3, r3
 8000ce6:	f003 0320 	and.w	r3, r3, #32
 8000cea:	2b20      	cmp	r3, #32
 8000cec:	d1f8      	bne.n	8000ce0 <USART1_IRQ_Callback+0x14>
    {
      /* Wait for RXNE flag to be set */
    }

    /* Read data register to clear parity error */
    USART1->DR;
 8000cee:	4b0c      	ldr	r3, [pc, #48]	; (8000d20 <USART1_IRQ_Callback+0x54>)
 8000cf0:	889b      	ldrh	r3, [r3, #4]

    /* Set parity error */
    currentIRQStatus = USART1_PARITY_ERROR;
 8000cf2:	4b0c      	ldr	r3, [pc, #48]	; (8000d24 <USART1_IRQ_Callback+0x58>)
 8000cf4:	2202      	movs	r2, #2
 8000cf6:	701a      	strb	r2, [r3, #0]
  {
    /* No parity error */
  }

  /* Check USART receiver */
  if((USART1->SR & USART_SR_RXNE) == USART_SR_RXNE)
 8000cf8:	4b09      	ldr	r3, [pc, #36]	; (8000d20 <USART1_IRQ_Callback+0x54>)
 8000cfa:	881b      	ldrh	r3, [r3, #0]
 8000cfc:	b29b      	uxth	r3, r3
 8000cfe:	f003 0320 	and.w	r3, r3, #32
 8000d02:	2b20      	cmp	r3, #32
 8000d04:	d108      	bne.n	8000d18 <USART1_IRQ_Callback+0x4c>
  {
    /* Read character */
    RxChar = USART1->DR;
 8000d06:	4b06      	ldr	r3, [pc, #24]	; (8000d20 <USART1_IRQ_Callback+0x54>)
 8000d08:	889b      	ldrh	r3, [r3, #4]
 8000d0a:	b29b      	uxth	r3, r3
 8000d0c:	b2da      	uxtb	r2, r3
 8000d0e:	4b06      	ldr	r3, [pc, #24]	; (8000d28 <USART1_IRQ_Callback+0x5c>)
 8000d10:	701a      	strb	r2, [r3, #0]

    /* Set IRQ status */
    currentIRQStatus = USART1_CHAR_RECEIVED;
 8000d12:	4b04      	ldr	r3, [pc, #16]	; (8000d24 <USART1_IRQ_Callback+0x58>)
 8000d14:	2201      	movs	r2, #1
 8000d16:	701a      	strb	r2, [r3, #0]
  }
  else
  {
    /* No new data received */
  }
}
 8000d18:	bf00      	nop
 8000d1a:	46bd      	mov	sp, r7
 8000d1c:	bc80      	pop	{r7}
 8000d1e:	4770      	bx	lr
 8000d20:	40013800 	.word	0x40013800
 8000d24:	20000035 	.word	0x20000035
 8000d28:	20000036 	.word	0x20000036

08000d2c <strReceive>:
 * @note
 * @param   None
 * @retval  None
 */
static void strReceive(void)
{
 8000d2c:	b480      	push	{r7}
 8000d2e:	b083      	sub	sp, #12
 8000d30:	af00      	add	r7, sp, #0

  /* Current reception index */
  static int RxIndex = 0;

  /* Check for end-of-line condition */
  if (RxChar == '\0')
 8000d32:	4b21      	ldr	r3, [pc, #132]	; (8000db8 <strReceive+0x8c>)
 8000d34:	781b      	ldrb	r3, [r3, #0]
 8000d36:	2b00      	cmp	r3, #0
 8000d38:	d127      	bne.n	8000d8a <strReceive+0x5e>
  {
    /* Check if string data was received before */
    if (RxIndex != 0)
 8000d3a:	4b20      	ldr	r3, [pc, #128]	; (8000dbc <strReceive+0x90>)
 8000d3c:	681b      	ldr	r3, [r3, #0]
 8000d3e:	2b00      	cmp	r3, #0
 8000d40:	d035      	beq.n	8000dae <strReceive+0x82>
    {
      /* Copy string data from local buffer */
      for(int idx = 0; idx < RxIndex; idx++)
 8000d42:	2300      	movs	r3, #0
 8000d44:	607b      	str	r3, [r7, #4]
 8000d46:	e00b      	b.n	8000d60 <strReceive+0x34>
      {
        RxBuffer[idx] = RxLocalBuffer[idx];
 8000d48:	4a1d      	ldr	r2, [pc, #116]	; (8000dc0 <strReceive+0x94>)
 8000d4a:	687b      	ldr	r3, [r7, #4]
 8000d4c:	4413      	add	r3, r2
 8000d4e:	7819      	ldrb	r1, [r3, #0]
 8000d50:	4a1c      	ldr	r2, [pc, #112]	; (8000dc4 <strReceive+0x98>)
 8000d52:	687b      	ldr	r3, [r7, #4]
 8000d54:	4413      	add	r3, r2
 8000d56:	460a      	mov	r2, r1
 8000d58:	701a      	strb	r2, [r3, #0]
      for(int idx = 0; idx < RxIndex; idx++)
 8000d5a:	687b      	ldr	r3, [r7, #4]
 8000d5c:	3301      	adds	r3, #1
 8000d5e:	607b      	str	r3, [r7, #4]
 8000d60:	4b16      	ldr	r3, [pc, #88]	; (8000dbc <strReceive+0x90>)
 8000d62:	681b      	ldr	r3, [r3, #0]
 8000d64:	687a      	ldr	r2, [r7, #4]
 8000d66:	429a      	cmp	r2, r3
 8000d68:	dbee      	blt.n	8000d48 <strReceive+0x1c>
      }

      /* Add terminating NULL at the end */
      RxBuffer[RxIndex] = 0;
 8000d6a:	4b14      	ldr	r3, [pc, #80]	; (8000dbc <strReceive+0x90>)
 8000d6c:	681b      	ldr	r3, [r3, #0]
 8000d6e:	4a15      	ldr	r2, [pc, #84]	; (8000dc4 <strReceive+0x98>)
 8000d70:	2100      	movs	r1, #0
 8000d72:	54d1      	strb	r1, [r2, r3]

      /* Set message length */
      RxMessageLength = RxIndex + 1;
 8000d74:	4b11      	ldr	r3, [pc, #68]	; (8000dbc <strReceive+0x90>)
 8000d76:	681b      	ldr	r3, [r3, #0]
 8000d78:	b2db      	uxtb	r3, r3
 8000d7a:	3301      	adds	r3, #1
 8000d7c:	b2da      	uxtb	r2, r3
 8000d7e:	4b12      	ldr	r3, [pc, #72]	; (8000dc8 <strReceive+0x9c>)
 8000d80:	701a      	strb	r2, [r3, #0]

      /* Reset current index */
      RxIndex = 0;
 8000d82:	4b0e      	ldr	r3, [pc, #56]	; (8000dbc <strReceive+0x90>)
 8000d84:	2200      	movs	r2, #0
 8000d86:	601a      	str	r2, [r3, #0]
    RxLocalBuffer[RxIndex] = RxChar;

    /* Increment current index for the next char reception */
    RxIndex++;
  }
}
 8000d88:	e011      	b.n	8000dae <strReceive+0x82>
    if (MAX_BUFFER_LENGTH == RxIndex)
 8000d8a:	4b0c      	ldr	r3, [pc, #48]	; (8000dbc <strReceive+0x90>)
 8000d8c:	681b      	ldr	r3, [r3, #0]
 8000d8e:	2bc8      	cmp	r3, #200	; 0xc8
 8000d90:	d102      	bne.n	8000d98 <strReceive+0x6c>
      RxIndex = 0;
 8000d92:	4b0a      	ldr	r3, [pc, #40]	; (8000dbc <strReceive+0x90>)
 8000d94:	2200      	movs	r2, #0
 8000d96:	601a      	str	r2, [r3, #0]
    RxLocalBuffer[RxIndex] = RxChar;
 8000d98:	4b08      	ldr	r3, [pc, #32]	; (8000dbc <strReceive+0x90>)
 8000d9a:	681b      	ldr	r3, [r3, #0]
 8000d9c:	4a06      	ldr	r2, [pc, #24]	; (8000db8 <strReceive+0x8c>)
 8000d9e:	7811      	ldrb	r1, [r2, #0]
 8000da0:	4a07      	ldr	r2, [pc, #28]	; (8000dc0 <strReceive+0x94>)
 8000da2:	54d1      	strb	r1, [r2, r3]
    RxIndex++;
 8000da4:	4b05      	ldr	r3, [pc, #20]	; (8000dbc <strReceive+0x90>)
 8000da6:	681b      	ldr	r3, [r3, #0]
 8000da8:	3301      	adds	r3, #1
 8000daa:	4a04      	ldr	r2, [pc, #16]	; (8000dbc <strReceive+0x90>)
 8000dac:	6013      	str	r3, [r2, #0]
}
 8000dae:	bf00      	nop
 8000db0:	370c      	adds	r7, #12
 8000db2:	46bd      	mov	sp, r7
 8000db4:	bc80      	pop	{r7}
 8000db6:	4770      	bx	lr
 8000db8:	20000036 	.word	0x20000036
 8000dbc:	20000104 	.word	0x20000104
 8000dc0:	20000108 	.word	0x20000108
 8000dc4:	20000038 	.word	0x20000038
 8000dc8:	20000101 	.word	0x20000101

08000dcc <USART_Send_String>:
 * @note
 * @param   USARTX, str
 * @retval  None
 */
void USART_Send_String(USART_TypeDef *USARTx,const char *str)
{
 8000dcc:	b580      	push	{r7, lr}
 8000dce:	b082      	sub	sp, #8
 8000dd0:	af00      	add	r7, sp, #0
 8000dd2:	6078      	str	r0, [r7, #4]
 8000dd4:	6039      	str	r1, [r7, #0]
 /* Check null pointers */
 if(NULL != str)
 8000dd6:	683b      	ldr	r3, [r7, #0]
 8000dd8:	2b00      	cmp	r3, #0
 8000dda:	d014      	beq.n	8000e06 <USART_Send_String+0x3a>
  {
   while(*str != 0)
 8000ddc:	e008      	b.n	8000df0 <USART_Send_String+0x24>
	{
	  USART_Send_Char(USARTx, *str++);
 8000dde:	683b      	ldr	r3, [r7, #0]
 8000de0:	1c5a      	adds	r2, r3, #1
 8000de2:	603a      	str	r2, [r7, #0]
 8000de4:	781b      	ldrb	r3, [r3, #0]
 8000de6:	b29b      	uxth	r3, r3
 8000de8:	4619      	mov	r1, r3
 8000dea:	6878      	ldr	r0, [r7, #4]
 8000dec:	f000 f80f 	bl	8000e0e <USART_Send_Char>
   while(*str != 0)
 8000df0:	683b      	ldr	r3, [r7, #0]
 8000df2:	781b      	ldrb	r3, [r3, #0]
 8000df4:	2b00      	cmp	r3, #0
 8000df6:	d1f2      	bne.n	8000dde <USART_Send_String+0x12>
	}
   USART_Send_Char(USARTx, *str);
 8000df8:	683b      	ldr	r3, [r7, #0]
 8000dfa:	781b      	ldrb	r3, [r3, #0]
 8000dfc:	b29b      	uxth	r3, r3
 8000dfe:	4619      	mov	r1, r3
 8000e00:	6878      	ldr	r0, [r7, #4]
 8000e02:	f000 f804 	bl	8000e0e <USART_Send_Char>
  }
 else
 {
   /* Null pointers, do nothing */
 }
}
 8000e06:	bf00      	nop
 8000e08:	3708      	adds	r7, #8
 8000e0a:	46bd      	mov	sp, r7
 8000e0c:	bd80      	pop	{r7, pc}

08000e0e <USART_Send_Char>:
 * @note
 * @param   USARTX, char
 * @retval  None
 */
void USART_Send_Char(USART_TypeDef *USARTx, uint16_t Value)
{
 8000e0e:	b480      	push	{r7}
 8000e10:	b083      	sub	sp, #12
 8000e12:	af00      	add	r7, sp, #0
 8000e14:	6078      	str	r0, [r7, #4]
 8000e16:	460b      	mov	r3, r1
 8000e18:	807b      	strh	r3, [r7, #2]
    /* Check USART status register */
    while(!(USARTx->SR & USART_SR_TXE))
 8000e1a:	bf00      	nop
 8000e1c:	687b      	ldr	r3, [r7, #4]
 8000e1e:	881b      	ldrh	r3, [r3, #0]
 8000e20:	b29b      	uxth	r3, r3
 8000e22:	f003 0380 	and.w	r3, r3, #128	; 0x80
 8000e26:	2b00      	cmp	r3, #0
 8000e28:	d0f8      	beq.n	8000e1c <USART_Send_Char+0xe>
    {
      /* Wait for transmission buffer empty flag */
    }
	USARTx ->DR = Value;
 8000e2a:	687b      	ldr	r3, [r7, #4]
 8000e2c:	887a      	ldrh	r2, [r7, #2]
 8000e2e:	809a      	strh	r2, [r3, #4]
}
 8000e30:	bf00      	nop
 8000e32:	370c      	adds	r7, #12
 8000e34:	46bd      	mov	sp, r7
 8000e36:	bc80      	pop	{r7}
 8000e38:	4770      	bx	lr
 8000e3a:	0000      	movs	r0, r0
 8000e3c:	0000      	movs	r0, r0
	...

08000e40 <USART_Init>:
 *                        Without_DMA
 *          F_CK:         Input clock to the peripheral in Hz
 * @retval  None
 */
void USART_Init(USART_TypeDef *USARTx, uint8_t Is_With_DMA, uint32_t F_CK )
{
 8000e40:	b590      	push	{r4, r7, lr}
 8000e42:	b089      	sub	sp, #36	; 0x24
 8000e44:	af00      	add	r7, sp, #0
 8000e46:	60f8      	str	r0, [r7, #12]
 8000e48:	460b      	mov	r3, r1
 8000e4a:	607a      	str	r2, [r7, #4]
 8000e4c:	72fb      	strb	r3, [r7, #11]

 double USARTDIV=0;
 8000e4e:	f04f 0300 	mov.w	r3, #0
 8000e52:	f04f 0400 	mov.w	r4, #0
 8000e56:	e9c7 3406 	strd	r3, r4, [r7, #24]
 uint8_t Fraction;

/* USART GPIO configuration -------------------------------------------------------*/
 if(USARTx == USART1)
 8000e5a:	68fb      	ldr	r3, [r7, #12]
 8000e5c:	4a54      	ldr	r2, [pc, #336]	; (8000fb0 <USART_Init+0x170>)
 8000e5e:	4293      	cmp	r3, r2
 8000e60:	d102      	bne.n	8000e68 <USART_Init+0x28>
 {
  /* Configuration GPIOA TX & RX based on Reference manual Table 24 & Table 54	*/
	 GPIO_USART1_Init();
 8000e62:	f7ff fe11 	bl	8000a88 <GPIO_USART1_Init>
 8000e66:	e005      	b.n	8000e74 <USART_Init+0x34>

 }

 else if(USARTx == USART3)
 8000e68:	68fb      	ldr	r3, [r7, #12]
 8000e6a:	4a52      	ldr	r2, [pc, #328]	; (8000fb4 <USART_Init+0x174>)
 8000e6c:	4293      	cmp	r3, r2
 8000e6e:	d101      	bne.n	8000e74 <USART_Init+0x34>
 {
  /* Configuration GPIOB TX & RX based on Reference manual Table 24 & Table 52	*/
	 GPIO_USART2_Init();
 8000e70:	f7ff fe44 	bl	8000afc <GPIO_USART2_Init>
 }


/* USART configuration -------------------------------------------------------*/
   /*Enable USART1 clock */
   if(USARTx == USART1)
 8000e74:	68fb      	ldr	r3, [r7, #12]
 8000e76:	4a4e      	ldr	r2, [pc, #312]	; (8000fb0 <USART_Init+0x170>)
 8000e78:	4293      	cmp	r3, r2
 8000e7a:	d106      	bne.n	8000e8a <USART_Init+0x4a>
     RCC ->APB2ENR   |=  RCC_APB2ENR_USART1EN;
 8000e7c:	4a4e      	ldr	r2, [pc, #312]	; (8000fb8 <USART_Init+0x178>)
 8000e7e:	4b4e      	ldr	r3, [pc, #312]	; (8000fb8 <USART_Init+0x178>)
 8000e80:	699b      	ldr	r3, [r3, #24]
 8000e82:	f443 4380 	orr.w	r3, r3, #16384	; 0x4000
 8000e86:	6193      	str	r3, [r2, #24]
 8000e88:	e009      	b.n	8000e9e <USART_Init+0x5e>
   /* Enable USART3 clock */
   else if(USARTx == USART3)
 8000e8a:	68fb      	ldr	r3, [r7, #12]
 8000e8c:	4a49      	ldr	r2, [pc, #292]	; (8000fb4 <USART_Init+0x174>)
 8000e8e:	4293      	cmp	r3, r2
 8000e90:	d105      	bne.n	8000e9e <USART_Init+0x5e>
    RCC ->APB1ENR   |=  RCC_APB1ENR_USART3EN;
 8000e92:	4a49      	ldr	r2, [pc, #292]	; (8000fb8 <USART_Init+0x178>)
 8000e94:	4b48      	ldr	r3, [pc, #288]	; (8000fb8 <USART_Init+0x178>)
 8000e96:	69db      	ldr	r3, [r3, #28]
 8000e98:	f443 2380 	orr.w	r3, r3, #262144	; 0x40000
 8000e9c:	61d3      	str	r3, [r2, #28]

   /* select 1 Start bit, 9 Data bits, n Stop bit  */
   USARTx ->CR1    |= USART_CR1_M;
 8000e9e:	68fb      	ldr	r3, [r7, #12]
 8000ea0:	899b      	ldrh	r3, [r3, #12]
 8000ea2:	b29b      	uxth	r3, r3
 8000ea4:	f443 5380 	orr.w	r3, r3, #4096	; 0x1000
 8000ea8:	b29a      	uxth	r2, r3
 8000eaa:	68fb      	ldr	r3, [r7, #12]
 8000eac:	819a      	strh	r2, [r3, #12]

   /* STOP bits, 00: 1 Stop bit */
   USARTx->CR2    &= ~USART_CR2_STOP;
 8000eae:	68fb      	ldr	r3, [r7, #12]
 8000eb0:	8a1b      	ldrh	r3, [r3, #16]
 8000eb2:	b29b      	uxth	r3, r3
 8000eb4:	f423 5340 	bic.w	r3, r3, #12288	; 0x3000
 8000eb8:	b29a      	uxth	r2, r3
 8000eba:	68fb      	ldr	r3, [r7, #12]
 8000ebc:	821a      	strh	r2, [r3, #16]

   /* Select odd parity */
   USARTx->CR1 |= USART_CR1_PS;
 8000ebe:	68fb      	ldr	r3, [r7, #12]
 8000ec0:	899b      	ldrh	r3, [r3, #12]
 8000ec2:	b29b      	uxth	r3, r3
 8000ec4:	f443 7300 	orr.w	r3, r3, #512	; 0x200
 8000ec8:	b29a      	uxth	r2, r3
 8000eca:	68fb      	ldr	r3, [r7, #12]
 8000ecc:	819a      	strh	r2, [r3, #12]

   /* Enable parity control */
   USART1->CR1 |= USART_CR1_PCE;
 8000ece:	4a38      	ldr	r2, [pc, #224]	; (8000fb0 <USART_Init+0x170>)
 8000ed0:	4b37      	ldr	r3, [pc, #220]	; (8000fb0 <USART_Init+0x170>)
 8000ed2:	899b      	ldrh	r3, [r3, #12]
 8000ed4:	b29b      	uxth	r3, r3
 8000ed6:	f443 6380 	orr.w	r3, r3, #1024	; 0x400
 8000eda:	b29b      	uxth	r3, r3
 8000edc:	8193      	strh	r3, [r2, #12]
    *
    * DIV_Fraction = 16 * 0.0625 = 1 = 0x1
    * DIV_Mantissa = 39 = 0x27
    *
    * BRR          = 0x271 */
  USARTDIV    = ( F_CK/(Baud_Rate*16.0) );
 8000ede:	6878      	ldr	r0, [r7, #4]
 8000ee0:	f7ff fa78 	bl	80003d4 <__aeabi_ui2d>
 8000ee4:	a330      	add	r3, pc, #192	; (adr r3, 8000fa8 <USART_Init+0x168>)
 8000ee6:	e9d3 2300 	ldrd	r2, r3, [r3]
 8000eea:	f7ff fc13 	bl	8000714 <__aeabi_ddiv>
 8000eee:	4603      	mov	r3, r0
 8000ef0:	460c      	mov	r4, r1
 8000ef2:	e9c7 3406 	strd	r3, r4, [r7, #24]
  Fraction = round( (USARTDIV - ((uint16_t)USARTDIV) )* 16 ) ;
 8000ef6:	e9d7 0106 	ldrd	r0, r1, [r7, #24]
 8000efa:	f7ff fcf3 	bl	80008e4 <__aeabi_d2uiz>
 8000efe:	4603      	mov	r3, r0
 8000f00:	b29b      	uxth	r3, r3
 8000f02:	4618      	mov	r0, r3
 8000f04:	f7ff fa76 	bl	80003f4 <__aeabi_i2d>
 8000f08:	4603      	mov	r3, r0
 8000f0a:	460c      	mov	r4, r1
 8000f0c:	461a      	mov	r2, r3
 8000f0e:	4623      	mov	r3, r4
 8000f10:	e9d7 0106 	ldrd	r0, r1, [r7, #24]
 8000f14:	f7ff f920 	bl	8000158 <__aeabi_dsub>
 8000f18:	4603      	mov	r3, r0
 8000f1a:	460c      	mov	r4, r1
 8000f1c:	4618      	mov	r0, r3
 8000f1e:	4621      	mov	r1, r4
 8000f20:	f04f 0200 	mov.w	r2, #0
 8000f24:	4b25      	ldr	r3, [pc, #148]	; (8000fbc <USART_Init+0x17c>)
 8000f26:	f7ff facb 	bl	80004c0 <__aeabi_dmul>
 8000f2a:	4603      	mov	r3, r0
 8000f2c:	460c      	mov	r4, r1
 8000f2e:	4618      	mov	r0, r3
 8000f30:	4621      	mov	r1, r4
 8000f32:	f000 fb65 	bl	8001600 <round>
 8000f36:	4603      	mov	r3, r0
 8000f38:	460c      	mov	r4, r1
 8000f3a:	4618      	mov	r0, r3
 8000f3c:	4621      	mov	r1, r4
 8000f3e:	f7ff fcd1 	bl	80008e4 <__aeabi_d2uiz>
 8000f42:	4603      	mov	r3, r0
 8000f44:	75fb      	strb	r3, [r7, #23]
  if(Fraction > 15)
 8000f46:	7dfb      	ldrb	r3, [r7, #23]
 8000f48:	2b0f      	cmp	r3, #15
 8000f4a:	d90c      	bls.n	8000f66 <USART_Init+0x126>
	 {
	    Fraction=0;
 8000f4c:	2300      	movs	r3, #0
 8000f4e:	75fb      	strb	r3, [r7, #23]
	    USARTDIV++;
 8000f50:	f04f 0200 	mov.w	r2, #0
 8000f54:	4b1a      	ldr	r3, [pc, #104]	; (8000fc0 <USART_Init+0x180>)
 8000f56:	e9d7 0106 	ldrd	r0, r1, [r7, #24]
 8000f5a:	f7ff f8ff 	bl	800015c <__adddf3>
 8000f5e:	4603      	mov	r3, r0
 8000f60:	460c      	mov	r4, r1
 8000f62:	e9c7 3406 	strd	r3, r4, [r7, #24]
	 }
  USARTx ->BRR = ( ( ((uint16_t)USARTDIV) << 4 ) + Fraction) ;
 8000f66:	e9d7 0106 	ldrd	r0, r1, [r7, #24]
 8000f6a:	f7ff fcbb 	bl	80008e4 <__aeabi_d2uiz>
 8000f6e:	4603      	mov	r3, r0
 8000f70:	b29b      	uxth	r3, r3
 8000f72:	011b      	lsls	r3, r3, #4
 8000f74:	b29a      	uxth	r2, r3
 8000f76:	7dfb      	ldrb	r3, [r7, #23]
 8000f78:	b29b      	uxth	r3, r3
 8000f7a:	4413      	add	r3, r2
 8000f7c:	b29a      	uxth	r2, r3
 8000f7e:	68fb      	ldr	r3, [r7, #12]
 8000f80:	811a      	strh	r2, [r3, #8]

	if(Is_With_DMA == Yes)
 8000f82:	7afb      	ldrb	r3, [r7, #11]
 8000f84:	2b01      	cmp	r3, #1
 8000f86:	d107      	bne.n	8000f98 <USART_Init+0x158>
  		/* DMA mode enabled for reception */
  		USARTx->CR3  |= USART_CR3_DMAR;
 8000f88:	68fb      	ldr	r3, [r7, #12]
 8000f8a:	8a9b      	ldrh	r3, [r3, #20]
 8000f8c:	b29b      	uxth	r3, r3
 8000f8e:	f043 0340 	orr.w	r3, r3, #64	; 0x40
 8000f92:	b29a      	uxth	r2, r3
 8000f94:	68fb      	ldr	r3, [r7, #12]
 8000f96:	829a      	strh	r2, [r3, #20]

	__ASM("NOP");
 8000f98:	bf00      	nop
	__ASM("NOP");
 8000f9a:	bf00      	nop
	__ASM("NOP");
 8000f9c:	bf00      	nop
	__ASM("NOP");
 8000f9e:	bf00      	nop

}
 8000fa0:	bf00      	nop
 8000fa2:	3724      	adds	r7, #36	; 0x24
 8000fa4:	46bd      	mov	sp, r7
 8000fa6:	bd90      	pop	{r4, r7, pc}
 8000fa8:	00000000 	.word	0x00000000
 8000fac:	413c2000 	.word	0x413c2000
 8000fb0:	40013800 	.word	0x40013800
 8000fb4:	40004800 	.word	0x40004800
 8000fb8:	40021000 	.word	0x40021000
 8000fbc:	40300000 	.word	0x40300000
 8000fc0:	3ff00000 	.word	0x3ff00000

08000fc4 <USART_Enable>:
 * @note
 * @param   USARTx ,where x=1 ..3
 * @retval  None
 */
void USART_Enable(USART_TypeDef *USARTx)
{
 8000fc4:	b480      	push	{r7}
 8000fc6:	b083      	sub	sp, #12
 8000fc8:	af00      	add	r7, sp, #0
 8000fca:	6078      	str	r0, [r7, #4]
  /* Enable USART1 */
  USARTx->CR1 |= USART_CR1_UE;
 8000fcc:	687b      	ldr	r3, [r7, #4]
 8000fce:	899b      	ldrh	r3, [r3, #12]
 8000fd0:	b29b      	uxth	r3, r3
 8000fd2:	f443 5300 	orr.w	r3, r3, #8192	; 0x2000
 8000fd6:	b29a      	uxth	r2, r3
 8000fd8:	687b      	ldr	r3, [r7, #4]
 8000fda:	819a      	strh	r2, [r3, #12]

  /* Enable transmitter */
  USARTx->CR1 |= USART_CR1_TE;
 8000fdc:	687b      	ldr	r3, [r7, #4]
 8000fde:	899b      	ldrh	r3, [r3, #12]
 8000fe0:	b29b      	uxth	r3, r3
 8000fe2:	f043 0308 	orr.w	r3, r3, #8
 8000fe6:	b29a      	uxth	r2, r3
 8000fe8:	687b      	ldr	r3, [r7, #4]
 8000fea:	819a      	strh	r2, [r3, #12]

  /* Enable receiver */
  USARTx->CR1 |= USART_CR1_RE;
 8000fec:	687b      	ldr	r3, [r7, #4]
 8000fee:	899b      	ldrh	r3, [r3, #12]
 8000ff0:	b29b      	uxth	r3, r3
 8000ff2:	f043 0304 	orr.w	r3, r3, #4
 8000ff6:	b29a      	uxth	r2, r3
 8000ff8:	687b      	ldr	r3, [r7, #4]
 8000ffa:	819a      	strh	r2, [r3, #12]

  /* Enable reception buffer not empty flag interrupt */
  USARTx->CR1 |= USART_CR1_RXNEIE;
 8000ffc:	687b      	ldr	r3, [r7, #4]
 8000ffe:	899b      	ldrh	r3, [r3, #12]
 8001000:	b29b      	uxth	r3, r3
 8001002:	f043 0320 	orr.w	r3, r3, #32
 8001006:	b29a      	uxth	r2, r3
 8001008:	687b      	ldr	r3, [r7, #4]
 800100a:	819a      	strh	r2, [r3, #12]

  /* Enable parity error interrupt */
  USARTx->CR1 |= USART_CR1_PEIE;
 800100c:	687b      	ldr	r3, [r7, #4]
 800100e:	899b      	ldrh	r3, [r3, #12]
 8001010:	b29b      	uxth	r3, r3
 8001012:	f443 7380 	orr.w	r3, r3, #256	; 0x100
 8001016:	b29a      	uxth	r2, r3
 8001018:	687b      	ldr	r3, [r7, #4]
 800101a:	819a      	strh	r2, [r3, #12]

}
 800101c:	bf00      	nop
 800101e:	370c      	adds	r7, #12
 8001020:	46bd      	mov	sp, r7
 8001022:	bc80      	pop	{r7}
 8001024:	4770      	bx	lr
	...

08001028 <USART1_Process>:
 * @note
 * @param   None
 * @retval  None
 */
void USART1_Process(void)
{
 8001028:	b580      	push	{r7, lr}
 800102a:	b082      	sub	sp, #8
 800102c:	af00      	add	r7, sp, #0
  /* Check error status */
  switch (currentIRQStatus)
 800102e:	4b68      	ldr	r3, [pc, #416]	; (80011d0 <USART1_Process+0x1a8>)
 8001030:	781b      	ldrb	r3, [r3, #0]
 8001032:	2b01      	cmp	r3, #1
 8001034:	d00f      	beq.n	8001056 <USART1_Process+0x2e>
 8001036:	2b02      	cmp	r3, #2
 8001038:	d002      	beq.n	8001040 <USART1_Process+0x18>
 800103a:	2b00      	cmp	r3, #0
 800103c:	d011      	beq.n	8001062 <USART1_Process+0x3a>

    case USART1_NO_IRQ:
      break;

    default:
      break;
 800103e:	e011      	b.n	8001064 <USART1_Process+0x3c>
    	USART_Send_String(USART1, parity_error);
 8001040:	4964      	ldr	r1, [pc, #400]	; (80011d4 <USART1_Process+0x1ac>)
 8001042:	4865      	ldr	r0, [pc, #404]	; (80011d8 <USART1_Process+0x1b0>)
 8001044:	f7ff fec2 	bl	8000dcc <USART_Send_String>
      currentState = USART1_IDLE;
 8001048:	4b64      	ldr	r3, [pc, #400]	; (80011dc <USART1_Process+0x1b4>)
 800104a:	2200      	movs	r2, #0
 800104c:	701a      	strb	r2, [r3, #0]
      currentIRQStatus = USART1_NO_IRQ;
 800104e:	4b60      	ldr	r3, [pc, #384]	; (80011d0 <USART1_Process+0x1a8>)
 8001050:	2200      	movs	r2, #0
 8001052:	701a      	strb	r2, [r3, #0]
      break;
 8001054:	e006      	b.n	8001064 <USART1_Process+0x3c>
      strReceive();
 8001056:	f7ff fe69 	bl	8000d2c <strReceive>
      currentIRQStatus = USART1_NO_IRQ;
 800105a:	4b5d      	ldr	r3, [pc, #372]	; (80011d0 <USART1_Process+0x1a8>)
 800105c:	2200      	movs	r2, #0
 800105e:	701a      	strb	r2, [r3, #0]
      break;
 8001060:	e000      	b.n	8001064 <USART1_Process+0x3c>
      break;
 8001062:	bf00      	nop
  }

  /* Check current USART state */
  switch (currentState)
 8001064:	4b5d      	ldr	r3, [pc, #372]	; (80011dc <USART1_Process+0x1b4>)
 8001066:	781b      	ldrb	r3, [r3, #0]
 8001068:	2b04      	cmp	r3, #4
 800106a:	f200 80a6 	bhi.w	80011ba <USART1_Process+0x192>
 800106e:	a201      	add	r2, pc, #4	; (adr r2, 8001074 <USART1_Process+0x4c>)
 8001070:	f852 f023 	ldr.w	pc, [r2, r3, lsl #2]
 8001074:	08001089 	.word	0x08001089
 8001078:	08001099 	.word	0x08001099
 800107c:	080010b1 	.word	0x080010b1
 8001080:	080010c1 	.word	0x080010c1
 8001084:	080010f7 	.word	0x080010f7
  {
    case USART1_IDLE:
      /* Transmit data */
    	USART_Send_String(USART1, hello_world);
 8001088:	4955      	ldr	r1, [pc, #340]	; (80011e0 <USART1_Process+0x1b8>)
 800108a:	4853      	ldr	r0, [pc, #332]	; (80011d8 <USART1_Process+0x1b0>)
 800108c:	f7ff fe9e 	bl	8000dcc <USART_Send_String>

      /* Go to next state */
      currentState = USART1_WAIT_FOR_RESPONCE;
 8001090:	4b52      	ldr	r3, [pc, #328]	; (80011dc <USART1_Process+0x1b4>)
 8001092:	2201      	movs	r2, #1
 8001094:	701a      	strb	r2, [r3, #0]
      break;
 8001096:	e097      	b.n	80011c8 <USART1_Process+0x1a0>

    case USART1_WAIT_FOR_RESPONCE:
      /* Check if new message received */
      if(0 != RxMessageLength)
 8001098:	4b52      	ldr	r3, [pc, #328]	; (80011e4 <USART1_Process+0x1bc>)
 800109a:	781b      	ldrb	r3, [r3, #0]
 800109c:	2b00      	cmp	r3, #0
 800109e:	f000 808e 	beq.w	80011be <USART1_Process+0x196>
      {
        /* Reset message length */
        RxMessageLength = 0;
 80010a2:	4b50      	ldr	r3, [pc, #320]	; (80011e4 <USART1_Process+0x1bc>)
 80010a4:	2200      	movs	r2, #0
 80010a6:	701a      	strb	r2, [r3, #0]

        /* Go to next state */
        currentState = USART1_ASK_FOR_NAME;
 80010a8:	4b4c      	ldr	r3, [pc, #304]	; (80011dc <USART1_Process+0x1b4>)
 80010aa:	2202      	movs	r2, #2
 80010ac:	701a      	strb	r2, [r3, #0]
      }
      else
      {
        /* Nothing received yet */
      }
      break;
 80010ae:	e086      	b.n	80011be <USART1_Process+0x196>

    case USART1_ASK_FOR_NAME:
      /* Transmit data */
    	USART_Send_String(USART1, ask_for_name);
 80010b0:	494d      	ldr	r1, [pc, #308]	; (80011e8 <USART1_Process+0x1c0>)
 80010b2:	4849      	ldr	r0, [pc, #292]	; (80011d8 <USART1_Process+0x1b0>)
 80010b4:	f7ff fe8a 	bl	8000dcc <USART_Send_String>

      /* Go to next state */
      currentState = USART1_WAIT_FOR_NAME;
 80010b8:	4b48      	ldr	r3, [pc, #288]	; (80011dc <USART1_Process+0x1b4>)
 80010ba:	2203      	movs	r2, #3
 80010bc:	701a      	strb	r2, [r3, #0]
      break;
 80010be:	e083      	b.n	80011c8 <USART1_Process+0x1a0>

    case USART1_WAIT_FOR_NAME:
      /* Check if new message received */
      if(0 != RxMessageLength)
 80010c0:	4b48      	ldr	r3, [pc, #288]	; (80011e4 <USART1_Process+0x1bc>)
 80010c2:	781b      	ldrb	r3, [r3, #0]
 80010c4:	2b00      	cmp	r3, #0
 80010c6:	d07c      	beq.n	80011c2 <USART1_Process+0x19a>
      {
        /* Transmit data */
    	  USART_Send_String(USART1, hi);
 80010c8:	4948      	ldr	r1, [pc, #288]	; (80011ec <USART1_Process+0x1c4>)
 80010ca:	4843      	ldr	r0, [pc, #268]	; (80011d8 <USART1_Process+0x1b0>)
 80010cc:	f7ff fe7e 	bl	8000dcc <USART_Send_String>
    	  USART_Send_String(USART1, RxBuffer);
 80010d0:	4947      	ldr	r1, [pc, #284]	; (80011f0 <USART1_Process+0x1c8>)
 80010d2:	4841      	ldr	r0, [pc, #260]	; (80011d8 <USART1_Process+0x1b0>)
 80010d4:	f7ff fe7a 	bl	8000dcc <USART_Send_String>
    	  USART_Send_String(USART1, ask_for_command);
 80010d8:	4946      	ldr	r1, [pc, #280]	; (80011f4 <USART1_Process+0x1cc>)
 80010da:	483f      	ldr	r0, [pc, #252]	; (80011d8 <USART1_Process+0x1b0>)
 80010dc:	f7ff fe76 	bl	8000dcc <USART_Send_String>
    	  USART_Send_String(USART1, ask_for_command_ex);
 80010e0:	4945      	ldr	r1, [pc, #276]	; (80011f8 <USART1_Process+0x1d0>)
 80010e2:	483d      	ldr	r0, [pc, #244]	; (80011d8 <USART1_Process+0x1b0>)
 80010e4:	f7ff fe72 	bl	8000dcc <USART_Send_String>

        /* Reset message length */
        RxMessageLength = 0;
 80010e8:	4b3e      	ldr	r3, [pc, #248]	; (80011e4 <USART1_Process+0x1bc>)
 80010ea:	2200      	movs	r2, #0
 80010ec:	701a      	strb	r2, [r3, #0]

        /* Go to next state */
        currentState = USART1_WAIT_FOR_COMMAND;
 80010ee:	4b3b      	ldr	r3, [pc, #236]	; (80011dc <USART1_Process+0x1b4>)
 80010f0:	2204      	movs	r2, #4
 80010f2:	701a      	strb	r2, [r3, #0]
      }
      else
      {
        /* Nothing received yet */
      }
      break;
 80010f4:	e065      	b.n	80011c2 <USART1_Process+0x19a>

    case USART1_WAIT_FOR_COMMAND:
      /* Check if new message received */
      if(0 != RxMessageLength)
 80010f6:	4b3b      	ldr	r3, [pc, #236]	; (80011e4 <USART1_Process+0x1bc>)
 80010f8:	781b      	ldrb	r3, [r3, #0]
 80010fa:	2b00      	cmp	r3, #0
 80010fc:	d063      	beq.n	80011c6 <USART1_Process+0x19e>
      {
        /* Reset message length */
        RxMessageLength = 0;
 80010fe:	4b39      	ldr	r3, [pc, #228]	; (80011e4 <USART1_Process+0x1bc>)
 8001100:	2200      	movs	r2, #0
 8001102:	701a      	strb	r2, [r3, #0]

        /* String compare results */
        strCmpReturnType isMatch_01 = STR_NOT_EQUAL;
 8001104:	2300      	movs	r3, #0
 8001106:	713b      	strb	r3, [r7, #4]
        strCmpReturnType isMatch_02 = STR_NOT_EQUAL;
 8001108:	2300      	movs	r3, #0
 800110a:	71fb      	strb	r3, [r7, #7]
        strCmpReturnType isMatch_03 = STR_NOT_EQUAL;
 800110c:	2300      	movs	r3, #0
 800110e:	71bb      	strb	r3, [r7, #6]
        strCmpReturnType isMatch_04 = STR_NOT_EQUAL;
 8001110:	2300      	movs	r3, #0
 8001112:	717b      	strb	r3, [r7, #5]

        /* Compare with turn on green led command */
        isMatch_01 =  strCmp(turn_on_green_led, RxBuffer,
 8001114:	2212      	movs	r2, #18
 8001116:	4936      	ldr	r1, [pc, #216]	; (80011f0 <USART1_Process+0x1c8>)
 8001118:	4838      	ldr	r0, [pc, #224]	; (80011fc <USART1_Process+0x1d4>)
 800111a:	f7ff fdab 	bl	8000c74 <strCmp>
 800111e:	4603      	mov	r3, r0
 8001120:	713b      	strb	r3, [r7, #4]
            sizeof(turn_on_green_led));

        /* Check return status */
        if(STR_EQUAL == isMatch_01)
 8001122:	793b      	ldrb	r3, [r7, #4]
 8001124:	2b01      	cmp	r3, #1
 8001126:	d104      	bne.n	8001132 <USART1_Process+0x10a>
        {
          /* Turn on green led */
          //GPIO_TurnON_LED(EVAL_GREEN_LED);

          /* Transmit data */
          USART_Send_String(USART1, done);
 8001128:	4935      	ldr	r1, [pc, #212]	; (8001200 <USART1_Process+0x1d8>)
 800112a:	482b      	ldr	r0, [pc, #172]	; (80011d8 <USART1_Process+0x1b0>)
 800112c:	f7ff fe4e 	bl	8000dcc <USART_Send_String>
 8001130:	e006      	b.n	8001140 <USART1_Process+0x118>
        }
        else
        {
          /* Compare with turn on red led command */
          isMatch_02 =  strCmp(turn_on_red_led, RxBuffer,
 8001132:	2210      	movs	r2, #16
 8001134:	492e      	ldr	r1, [pc, #184]	; (80011f0 <USART1_Process+0x1c8>)
 8001136:	4833      	ldr	r0, [pc, #204]	; (8001204 <USART1_Process+0x1dc>)
 8001138:	f7ff fd9c 	bl	8000c74 <strCmp>
 800113c:	4603      	mov	r3, r0
 800113e:	71fb      	strb	r3, [r7, #7]
              sizeof(turn_on_red_led));
        }

        /* Check return status */
        if(STR_EQUAL == isMatch_02)
 8001140:	79fb      	ldrb	r3, [r7, #7]
 8001142:	2b01      	cmp	r3, #1
 8001144:	d104      	bne.n	8001150 <USART1_Process+0x128>
        {
          /* Turn on red led */
          //GPIO_TurnON_LED(EVAL_RED_LED);

          /* Transmit data */
          USART_Send_String(USART1, done);
 8001146:	492e      	ldr	r1, [pc, #184]	; (8001200 <USART1_Process+0x1d8>)
 8001148:	4823      	ldr	r0, [pc, #140]	; (80011d8 <USART1_Process+0x1b0>)
 800114a:	f7ff fe3f 	bl	8000dcc <USART_Send_String>
 800114e:	e009      	b.n	8001164 <USART1_Process+0x13c>
        }
        else if(STR_NOT_EQUAL == isMatch_01)
 8001150:	793b      	ldrb	r3, [r7, #4]
 8001152:	2b00      	cmp	r3, #0
 8001154:	d106      	bne.n	8001164 <USART1_Process+0x13c>
        {
          /* Compare with turn off green led command */
          isMatch_03 =  strCmp(turn_off_green_led, RxBuffer,
 8001156:	2213      	movs	r2, #19
 8001158:	4925      	ldr	r1, [pc, #148]	; (80011f0 <USART1_Process+0x1c8>)
 800115a:	482b      	ldr	r0, [pc, #172]	; (8001208 <USART1_Process+0x1e0>)
 800115c:	f7ff fd8a 	bl	8000c74 <strCmp>
 8001160:	4603      	mov	r3, r0
 8001162:	71bb      	strb	r3, [r7, #6]
        {
          /* Do nothing */
        }

        /* Check return status */
        if(STR_EQUAL == isMatch_03)
 8001164:	79bb      	ldrb	r3, [r7, #6]
 8001166:	2b01      	cmp	r3, #1
 8001168:	d104      	bne.n	8001174 <USART1_Process+0x14c>
        {
          /* Turn off green led */
          //GPIO_TurnOFF_LED(EVAL_GREEN_LED);

          /* Transmit data */
          USART_Send_String(USART1, done);
 800116a:	4925      	ldr	r1, [pc, #148]	; (8001200 <USART1_Process+0x1d8>)
 800116c:	481a      	ldr	r0, [pc, #104]	; (80011d8 <USART1_Process+0x1b0>)
 800116e:	f7ff fe2d 	bl	8000dcc <USART_Send_String>
 8001172:	e00c      	b.n	800118e <USART1_Process+0x166>
        }
        else if((STR_NOT_EQUAL == isMatch_02)
 8001174:	79fb      	ldrb	r3, [r7, #7]
 8001176:	2b00      	cmp	r3, #0
 8001178:	d109      	bne.n	800118e <USART1_Process+0x166>
            && (STR_NOT_EQUAL == isMatch_01))
 800117a:	793b      	ldrb	r3, [r7, #4]
 800117c:	2b00      	cmp	r3, #0
 800117e:	d106      	bne.n	800118e <USART1_Process+0x166>
        {
          /* Compare with turn off red led command */
          isMatch_04 =  strCmp(turn_off_red_led, RxBuffer,
 8001180:	2211      	movs	r2, #17
 8001182:	491b      	ldr	r1, [pc, #108]	; (80011f0 <USART1_Process+0x1c8>)
 8001184:	4821      	ldr	r0, [pc, #132]	; (800120c <USART1_Process+0x1e4>)
 8001186:	f7ff fd75 	bl	8000c74 <strCmp>
 800118a:	4603      	mov	r3, r0
 800118c:	717b      	strb	r3, [r7, #5]
        {
          /* Do nothing */
        }

        /* Check return status */
        if(STR_EQUAL == isMatch_04)
 800118e:	797b      	ldrb	r3, [r7, #5]
 8001190:	2b01      	cmp	r3, #1
 8001192:	d104      	bne.n	800119e <USART1_Process+0x176>
        {
          /* Turn off red led */
         // GPIO_TurnOFF_LED(EVAL_RED_LED);

          /* Transmit data */
        	USART_Send_String(USART1, done);
 8001194:	491a      	ldr	r1, [pc, #104]	; (8001200 <USART1_Process+0x1d8>)
 8001196:	4810      	ldr	r0, [pc, #64]	; (80011d8 <USART1_Process+0x1b0>)
 8001198:	f7ff fe18 	bl	8000dcc <USART_Send_String>
      }
      else
      {
        /* Nothing received yet */
      }
      break;
 800119c:	e013      	b.n	80011c6 <USART1_Process+0x19e>
        else if((STR_NOT_EQUAL == isMatch_03)
 800119e:	79bb      	ldrb	r3, [r7, #6]
 80011a0:	2b00      	cmp	r3, #0
 80011a2:	d110      	bne.n	80011c6 <USART1_Process+0x19e>
            && (STR_NOT_EQUAL == isMatch_02)
 80011a4:	79fb      	ldrb	r3, [r7, #7]
 80011a6:	2b00      	cmp	r3, #0
 80011a8:	d10d      	bne.n	80011c6 <USART1_Process+0x19e>
            && (STR_NOT_EQUAL == isMatch_01))
 80011aa:	793b      	ldrb	r3, [r7, #4]
 80011ac:	2b00      	cmp	r3, #0
 80011ae:	d10a      	bne.n	80011c6 <USART1_Process+0x19e>
        	USART_Send_String(USART1, wrong_command);
 80011b0:	4917      	ldr	r1, [pc, #92]	; (8001210 <USART1_Process+0x1e8>)
 80011b2:	4809      	ldr	r0, [pc, #36]	; (80011d8 <USART1_Process+0x1b0>)
 80011b4:	f7ff fe0a 	bl	8000dcc <USART_Send_String>
      break;
 80011b8:	e005      	b.n	80011c6 <USART1_Process+0x19e>

    default:
      break;
 80011ba:	bf00      	nop
 80011bc:	e004      	b.n	80011c8 <USART1_Process+0x1a0>
      break;
 80011be:	bf00      	nop
 80011c0:	e002      	b.n	80011c8 <USART1_Process+0x1a0>
      break;
 80011c2:	bf00      	nop
 80011c4:	e000      	b.n	80011c8 <USART1_Process+0x1a0>
      break;
 80011c6:	bf00      	nop
  }
}
 80011c8:	bf00      	nop
 80011ca:	3708      	adds	r7, #8
 80011cc:	46bd      	mov	sp, r7
 80011ce:	bd80      	pop	{r7, pc}
 80011d0:	20000035 	.word	0x20000035
 80011d4:	0800177c 	.word	0x0800177c
 80011d8:	40013800 	.word	0x40013800
 80011dc:	20000034 	.word	0x20000034
 80011e0:	080016a4 	.word	0x080016a4
 80011e4:	20000101 	.word	0x20000101
 80011e8:	080016b4 	.word	0x080016b4
 80011ec:	080016c8 	.word	0x080016c8
 80011f0:	20000038 	.word	0x20000038
 80011f4:	080016cc 	.word	0x080016cc
 80011f8:	080016e4 	.word	0x080016e4
 80011fc:	08001718 	.word	0x08001718
 8001200:	08001764 	.word	0x08001764
 8001204:	0800172c 	.word	0x0800172c
 8001208:	0800173c 	.word	0x0800173c
 800120c:	08001750 	.word	0x08001750
 8001210:	0800176c 	.word	0x0800176c

08001214 <main>:
**  Abstract: main program
**
**===========================================================================
*/
int main(void)
{
 8001214:	b580      	push	{r7, lr}
 8001216:	af00      	add	r7, sp, #0
	SysTick_Init();
 8001218:	f7ff fbe6 	bl	80009e8 <SysTick_Init>
    GPIO_OnBoard_Init_LED();
 800121c:	f7ff fc0c 	bl	8000a38 <GPIO_OnBoard_Init_LED>
    NVIC_Init();
 8001220:	f7ff fd0c 	bl	8000c3c <NVIC_Init>
    USART_Init(USART1, Without_DMA, 8000000);
 8001224:	4a05      	ldr	r2, [pc, #20]	; (800123c <main+0x28>)
 8001226:	2100      	movs	r1, #0
 8001228:	4805      	ldr	r0, [pc, #20]	; (8001240 <main+0x2c>)
 800122a:	f7ff fe09 	bl	8000e40 <USART_Init>
  This function enables IRQ interrupts by clearing the I-bit in the CPSR.
  Can only be executed in Privileged modes.
 */
__attribute__( ( always_inline ) ) static __INLINE void __enable_irq(void)
{
  __ASM volatile ("cpsie i");
 800122e:	b662      	cpsie	i

    __enable_irq();
    USART_Enable(USART1);
 8001230:	4803      	ldr	r0, [pc, #12]	; (8001240 <main+0x2c>)
 8001232:	f7ff fec7 	bl	8000fc4 <USART_Enable>
 while(1)
 {
	 USART1_Process();
 8001236:	f7ff fef7 	bl	8001028 <USART1_Process>
 800123a:	e7fc      	b.n	8001236 <main+0x22>
 800123c:	007a1200 	.word	0x007a1200
 8001240:	40013800 	.word	0x40013800

08001244 <Reset_Handler>:

    .section	.text.Reset_Handler
	.weak	Reset_Handler
	.type	Reset_Handler, %function
Reset_Handler:
  ldr   sp, =_estack    /* Atollic update: set stack pointer */
 8001244:	f8df d038 	ldr.w	sp, [pc, #56]	; 8001280 <LoopFillZerobss+0x16>

  /* Disable interrupt (set PRIMASK) */
  CPSID i
 8001248:	b672      	cpsid	i

/* Copy the data segment initializers from flash to SRAM */
  movs	r1, #0
 800124a:	2100      	movs	r1, #0
  b	LoopCopyDataInit
 800124c:	e003      	b.n	8001256 <LoopCopyDataInit>

0800124e <CopyDataInit>:

CopyDataInit:
	ldr	r3, =_sidata
 800124e:	4b0d      	ldr	r3, [pc, #52]	; (8001284 <LoopFillZerobss+0x1a>)
	ldr	r3, [r3, r1]
 8001250:	585b      	ldr	r3, [r3, r1]
	str	r3, [r0, r1]
 8001252:	5043      	str	r3, [r0, r1]
	adds	r1, r1, #4
 8001254:	3104      	adds	r1, #4

08001256 <LoopCopyDataInit>:

LoopCopyDataInit:
	ldr	r0, =_sdata
 8001256:	480c      	ldr	r0, [pc, #48]	; (8001288 <LoopFillZerobss+0x1e>)
	ldr	r3, =_edata
 8001258:	4b0c      	ldr	r3, [pc, #48]	; (800128c <LoopFillZerobss+0x22>)
	adds	r2, r0, r1
 800125a:	1842      	adds	r2, r0, r1
	cmp	r2, r3
 800125c:	429a      	cmp	r2, r3
	bcc	CopyDataInit
 800125e:	d3f6      	bcc.n	800124e <CopyDataInit>
	ldr	r2, =_sbss
 8001260:	4a0b      	ldr	r2, [pc, #44]	; (8001290 <LoopFillZerobss+0x26>)
	b	LoopFillZerobss
 8001262:	e002      	b.n	800126a <LoopFillZerobss>

08001264 <FillZerobss>:
/* Zero fill the bss segment. */
FillZerobss:
	movs	r3, #0
 8001264:	2300      	movs	r3, #0
	str	r3, [r2], #4
 8001266:	f842 3b04 	str.w	r3, [r2], #4

0800126a <LoopFillZerobss>:

LoopFillZerobss:
	ldr	r3, = _ebss
 800126a:	4b0a      	ldr	r3, [pc, #40]	; (8001294 <LoopFillZerobss+0x2a>)
	cmp	r2, r3
 800126c:	429a      	cmp	r2, r3
	bcc	FillZerobss
 800126e:	d3f9      	bcc.n	8001264 <FillZerobss>

/* Call the clock system intitialization function.*/
    bl  SystemInit
 8001270:	f000 f89a 	bl	80013a8 <SystemInit>
/* Call static constructors */
    bl __libc_init_array
 8001274:	f000 f9a0 	bl	80015b8 <__libc_init_array>
/* Call the application's entry point.*/
	bl	main
 8001278:	f7ff ffcc 	bl	8001214 <main>
	bx	lr
 800127c:	4770      	bx	lr
 800127e:	0000      	.short	0x0000
  ldr   sp, =_estack    /* Atollic update: set stack pointer */
 8001280:	20005000 	.word	0x20005000
	ldr	r3, =_sidata
 8001284:	08001794 	.word	0x08001794
	ldr	r0, =_sdata
 8001288:	20000000 	.word	0x20000000
	ldr	r3, =_edata
 800128c:	20000014 	.word	0x20000014
	ldr	r2, =_sbss
 8001290:	20000014 	.word	0x20000014
	ldr	r3, = _ebss
 8001294:	200001d0 	.word	0x200001d0

08001298 <ADC1_2_IRQHandler>:
 * @retval : None
*/
    .section	.text.Default_Handler,"ax",%progbits
Default_Handler:
Infinite_Loop:
	b	Infinite_Loop
 8001298:	e7fe      	b.n	8001298 <ADC1_2_IRQHandler>

0800129a <NMI_Handler>:
  * @brief  This function handles NMI exception.
  * @param  None
  * @retval None
  */
void NMI_Handler(void)
{
 800129a:	b480      	push	{r7}
 800129c:	af00      	add	r7, sp, #0
}
 800129e:	bf00      	nop
 80012a0:	46bd      	mov	sp, r7
 80012a2:	bc80      	pop	{r7}
 80012a4:	4770      	bx	lr

080012a6 <HardFault_Handler>:
  * @brief  This function handles Hard Fault exception.
  * @param  None
  * @retval None
  */
void HardFault_Handler(void)
{
 80012a6:	b480      	push	{r7}
 80012a8:	af00      	add	r7, sp, #0
  /* Go to infinite loop when Hard Fault exception occurs */
  while (1)
 80012aa:	e7fe      	b.n	80012aa <HardFault_Handler+0x4>

080012ac <MemManage_Handler>:
  * @brief  This function handles Memory Manage exception.
  * @param  None
  * @retval None
  */
void MemManage_Handler(void)
{
 80012ac:	b480      	push	{r7}
 80012ae:	af00      	add	r7, sp, #0
  /* Go to infinite loop when Memory Manage exception occurs */
  while (1)
 80012b0:	e7fe      	b.n	80012b0 <MemManage_Handler+0x4>

080012b2 <BusFault_Handler>:
  * @brief  This function handles Bus Fault exception.
  * @param  None
  * @retval None
  */
void BusFault_Handler(void)
{
 80012b2:	b480      	push	{r7}
 80012b4:	af00      	add	r7, sp, #0
  /* Go to infinite loop when Bus Fault exception occurs */
  while (1)
 80012b6:	e7fe      	b.n	80012b6 <BusFault_Handler+0x4>

080012b8 <UsageFault_Handler>:
  * @brief  This function handles Usage Fault exception.
  * @param  None
  * @retval None
  */
void UsageFault_Handler(void)
{
 80012b8:	b480      	push	{r7}
 80012ba:	af00      	add	r7, sp, #0
  /* Go to infinite loop when Usage Fault exception occurs */
  while (1)
 80012bc:	e7fe      	b.n	80012bc <UsageFault_Handler+0x4>

080012be <SVC_Handler>:
  * @brief  This function handles SVCall exception.
  * @param  None
  * @retval None
  */
void SVC_Handler(void)
{
 80012be:	b480      	push	{r7}
 80012c0:	af00      	add	r7, sp, #0
}
 80012c2:	bf00      	nop
 80012c4:	46bd      	mov	sp, r7
 80012c6:	bc80      	pop	{r7}
 80012c8:	4770      	bx	lr

080012ca <DebugMon_Handler>:
  * @brief  This function handles Debug Monitor exception.
  * @param  None
  * @retval None
  */
void DebugMon_Handler(void)
{
 80012ca:	b480      	push	{r7}
 80012cc:	af00      	add	r7, sp, #0
}
 80012ce:	bf00      	nop
 80012d0:	46bd      	mov	sp, r7
 80012d2:	bc80      	pop	{r7}
 80012d4:	4770      	bx	lr

080012d6 <PendSV_Handler>:
  * @brief  This function handles PendSVC exception.
  * @param  None
  * @retval None
  */
void PendSV_Handler(void)
{
 80012d6:	b480      	push	{r7}
 80012d8:	af00      	add	r7, sp, #0
}
 80012da:	bf00      	nop
 80012dc:	46bd      	mov	sp, r7
 80012de:	bc80      	pop	{r7}
 80012e0:	4770      	bx	lr
	...

080012e4 <SysTick_Handler>:
  * @brief  This function handles SysTick Handler.
  * @param  None
  * @retval None
  */
void SysTick_Handler(void)
{
 80012e4:	b480      	push	{r7}
 80012e6:	af00      	add	r7, sp, #0
	++SysTickCounter;
 80012e8:	4b04      	ldr	r3, [pc, #16]	; (80012fc <SysTick_Handler+0x18>)
 80012ea:	681b      	ldr	r3, [r3, #0]
 80012ec:	3301      	adds	r3, #1
 80012ee:	4a03      	ldr	r2, [pc, #12]	; (80012fc <SysTick_Handler+0x18>)
 80012f0:	6013      	str	r3, [r2, #0]
}
 80012f2:	bf00      	nop
 80012f4:	46bd      	mov	sp, r7
 80012f6:	bc80      	pop	{r7}
 80012f8:	4770      	bx	lr
 80012fa:	bf00      	nop
 80012fc:	20000030 	.word	0x20000030

08001300 <EXTI0_IRQHandler>:
  * @note   None
  * @param  None
  * @retval None
  */
void EXTI0_IRQHandler(void)
{
 8001300:	b580      	push	{r7, lr}
 8001302:	af00      	add	r7, sp, #0

 /* Turn on Yellow LED */
    Yellow_LED_BITBAND = 0;
 8001304:	4b0a      	ldr	r3, [pc, #40]	; (8001330 <EXTI0_IRQHandler+0x30>)
 8001306:	2200      	movs	r2, #0
 8001308:	601a      	str	r2, [r3, #0]

 /* Wait one second */
    SysTick_Delay(1000);
 800130a:	f44f 707a 	mov.w	r0, #1000	; 0x3e8
 800130e:	f7ff fb55 	bl	80009bc <SysTick_Delay>

 /* Turn OFF Yellow LED */
    Yellow_LED_BITBAND = 1;
 8001312:	4b07      	ldr	r3, [pc, #28]	; (8001330 <EXTI0_IRQHandler+0x30>)
 8001314:	2201      	movs	r2, #1
 8001316:	601a      	str	r2, [r3, #0]

 /* Wait one second */
    SysTick_Delay(1000);
 8001318:	f44f 707a 	mov.w	r0, #1000	; 0x3e8
 800131c:	f7ff fb4e 	bl	80009bc <SysTick_Delay>

 /* Clear pending bit */
    EXTI->PR |= EXTI_PR_PR0;
 8001320:	4a04      	ldr	r2, [pc, #16]	; (8001334 <EXTI0_IRQHandler+0x34>)
 8001322:	4b04      	ldr	r3, [pc, #16]	; (8001334 <EXTI0_IRQHandler+0x34>)
 8001324:	695b      	ldr	r3, [r3, #20]
 8001326:	f043 0301 	orr.w	r3, r3, #1
 800132a:	6153      	str	r3, [r2, #20]
}
 800132c:	bf00      	nop
 800132e:	bd80      	pop	{r7, pc}
 8001330:	422201b4 	.word	0x422201b4
 8001334:	40010400 	.word	0x40010400

08001338 <EXTI1_IRQHandler>:
  * @note   None
  * @param  None
  * @retval None
  */
void EXTI1_IRQHandler(void)
{
 8001338:	b480      	push	{r7}
 800133a:	af00      	add	r7, sp, #0

}
 800133c:	bf00      	nop
 800133e:	46bd      	mov	sp, r7
 8001340:	bc80      	pop	{r7}
 8001342:	4770      	bx	lr

08001344 <EXTI2_IRQHandler>:
  * @note   None
  * @param  None
  * @retval None
  */
void EXTI2_IRQHandler(void)
{
 8001344:	b480      	push	{r7}
 8001346:	af00      	add	r7, sp, #0

}
 8001348:	bf00      	nop
 800134a:	46bd      	mov	sp, r7
 800134c:	bc80      	pop	{r7}
 800134e:	4770      	bx	lr

08001350 <EXTI3_IRQHandler>:
  * @note   None
  * @param  None
  * @retval None
  */
void EXTI3_IRQHandler(void)
{
 8001350:	b480      	push	{r7}
 8001352:	af00      	add	r7, sp, #0

}
 8001354:	bf00      	nop
 8001356:	46bd      	mov	sp, r7
 8001358:	bc80      	pop	{r7}
 800135a:	4770      	bx	lr

0800135c <DMA1_Channel3_IRQHandler>:
  * @param  None
  * @retval None
  */

void DMA1_Channel3_IRQHandler(void)
{
 800135c:	b480      	push	{r7}
 800135e:	af00      	add	r7, sp, #0

	if((DMA1->ISR & DMA_ISR_TCIF3) == DMA_ISR_TCIF3)
 8001360:	4b0c      	ldr	r3, [pc, #48]	; (8001394 <DMA1_Channel3_IRQHandler+0x38>)
 8001362:	681b      	ldr	r3, [r3, #0]
 8001364:	f403 7300 	and.w	r3, r3, #512	; 0x200
 8001368:	f5b3 7f00 	cmp.w	r3, #512	; 0x200
 800136c:	d108      	bne.n	8001380 <DMA1_Channel3_IRQHandler+0x24>
	{
		/* DMA transfer is complete, turn off Yellow LED */
		Yellow_LED_BITBAND = 1;
 800136e:	4b0a      	ldr	r3, [pc, #40]	; (8001398 <DMA1_Channel3_IRQHandler+0x3c>)
 8001370:	2201      	movs	r2, #1
 8001372:	601a      	str	r2, [r3, #0]
	    /* Clear transfer complete flag */
		DMA1->IFCR |= DMA_IFCR_CTCIF3;
 8001374:	4a07      	ldr	r2, [pc, #28]	; (8001394 <DMA1_Channel3_IRQHandler+0x38>)
 8001376:	4b07      	ldr	r3, [pc, #28]	; (8001394 <DMA1_Channel3_IRQHandler+0x38>)
 8001378:	685b      	ldr	r3, [r3, #4]
 800137a:	f443 7300 	orr.w	r3, r3, #512	; 0x200
 800137e:	6053      	str	r3, [r2, #4]
	}

	 /* Clears the GIF, TEIF, HTIF and TCIF flags in the DMA_ISR register */
		DMA1->IFCR |= DMA_IFCR_CGIF3;
 8001380:	4a04      	ldr	r2, [pc, #16]	; (8001394 <DMA1_Channel3_IRQHandler+0x38>)
 8001382:	4b04      	ldr	r3, [pc, #16]	; (8001394 <DMA1_Channel3_IRQHandler+0x38>)
 8001384:	685b      	ldr	r3, [r3, #4]
 8001386:	f443 7380 	orr.w	r3, r3, #256	; 0x100
 800138a:	6053      	str	r3, [r2, #4]

}
 800138c:	bf00      	nop
 800138e:	46bd      	mov	sp, r7
 8001390:	bc80      	pop	{r7}
 8001392:	4770      	bx	lr
 8001394:	40020000 	.word	0x40020000
 8001398:	422201b4 	.word	0x422201b4

0800139c <USART1_IRQHandler>:
  * @brief  This function handles USART1 interrupt request.
  * @param  None
  * @retval None
  */
void USART1_IRQHandler(void)
{
 800139c:	b580      	push	{r7, lr}
 800139e:	af00      	add	r7, sp, #0
  USART1_IRQ_Callback();
 80013a0:	f7ff fc94 	bl	8000ccc <USART1_IRQ_Callback>
}
 80013a4:	bf00      	nop
 80013a6:	bd80      	pop	{r7, pc}

080013a8 <SystemInit>:
  * @note   This function should be used only after reset.
  * @param  None
  * @retval None
  */
void SystemInit (void)
{
 80013a8:	b580      	push	{r7, lr}
 80013aa:	af00      	add	r7, sp, #0
  /* Reset the RCC clock configuration to the default reset state(for debug purpose) */
  /* Set HSION bit */
  RCC->CR |= (uint32_t)0x00000001;
 80013ac:	4a15      	ldr	r2, [pc, #84]	; (8001404 <SystemInit+0x5c>)
 80013ae:	4b15      	ldr	r3, [pc, #84]	; (8001404 <SystemInit+0x5c>)
 80013b0:	681b      	ldr	r3, [r3, #0]
 80013b2:	f043 0301 	orr.w	r3, r3, #1
 80013b6:	6013      	str	r3, [r2, #0]

  /* Reset SW, HPRE, PPRE1, PPRE2, ADCPRE and MCO bits */
#ifndef STM32F10X_CL
  RCC->CFGR &= (uint32_t)0xF8FF0000;
 80013b8:	4912      	ldr	r1, [pc, #72]	; (8001404 <SystemInit+0x5c>)
 80013ba:	4b12      	ldr	r3, [pc, #72]	; (8001404 <SystemInit+0x5c>)
 80013bc:	685a      	ldr	r2, [r3, #4]
 80013be:	4b12      	ldr	r3, [pc, #72]	; (8001408 <SystemInit+0x60>)
 80013c0:	4013      	ands	r3, r2
 80013c2:	604b      	str	r3, [r1, #4]
#else
  RCC->CFGR &= (uint32_t)0xF0FF0000;
#endif /* STM32F10X_CL */   
  
  /* Reset HSEON, CSSON and PLLON bits */
  RCC->CR &= (uint32_t)0xFEF6FFFF;
 80013c4:	4a0f      	ldr	r2, [pc, #60]	; (8001404 <SystemInit+0x5c>)
 80013c6:	4b0f      	ldr	r3, [pc, #60]	; (8001404 <SystemInit+0x5c>)
 80013c8:	681b      	ldr	r3, [r3, #0]
 80013ca:	f023 7384 	bic.w	r3, r3, #17301504	; 0x1080000
 80013ce:	f423 3380 	bic.w	r3, r3, #65536	; 0x10000
 80013d2:	6013      	str	r3, [r2, #0]

  /* Reset HSEBYP bit */
  RCC->CR &= (uint32_t)0xFFFBFFFF;
 80013d4:	4a0b      	ldr	r2, [pc, #44]	; (8001404 <SystemInit+0x5c>)
 80013d6:	4b0b      	ldr	r3, [pc, #44]	; (8001404 <SystemInit+0x5c>)
 80013d8:	681b      	ldr	r3, [r3, #0]
 80013da:	f423 2380 	bic.w	r3, r3, #262144	; 0x40000
 80013de:	6013      	str	r3, [r2, #0]

  /* Reset PLLSRC, PLLXTPRE, PLLMUL and USBPRE/OTGFSPRE bits */
  RCC->CFGR &= (uint32_t)0xFF80FFFF;
 80013e0:	4a08      	ldr	r2, [pc, #32]	; (8001404 <SystemInit+0x5c>)
 80013e2:	4b08      	ldr	r3, [pc, #32]	; (8001404 <SystemInit+0x5c>)
 80013e4:	685b      	ldr	r3, [r3, #4]
 80013e6:	f423 03fe 	bic.w	r3, r3, #8323072	; 0x7f0000
 80013ea:	6053      	str	r3, [r2, #4]

  /* Reset CFGR2 register */
  RCC->CFGR2 = 0x00000000;      
#else
  /* Disable all interrupts and clear pending bits  */
  RCC->CIR = 0x009F0000;
 80013ec:	4b05      	ldr	r3, [pc, #20]	; (8001404 <SystemInit+0x5c>)
 80013ee:	f44f 021f 	mov.w	r2, #10420224	; 0x9f0000
 80013f2:	609a      	str	r2, [r3, #8]
  #endif /* DATA_IN_ExtSRAM */
#endif 

  /* Configure the System clock frequency, HCLK, PCLK2 and PCLK1 prescalers */
  /* Configure the Flash Latency cycles and enable prefetch buffer */
  SetSysClock();
 80013f4:	f000 f878 	bl	80014e8 <SetSysClock>

#ifdef VECT_TAB_SRAM
  SCB->VTOR = SRAM_BASE | VECT_TAB_OFFSET; /* Vector Table Relocation in Internal SRAM. */
#else
  SCB->VTOR = FLASH_BASE | VECT_TAB_OFFSET; /* Vector Table Relocation in Internal FLASH. */
 80013f8:	4b04      	ldr	r3, [pc, #16]	; (800140c <SystemInit+0x64>)
 80013fa:	f04f 6200 	mov.w	r2, #134217728	; 0x8000000
 80013fe:	609a      	str	r2, [r3, #8]
#endif 
}
 8001400:	bf00      	nop
 8001402:	bd80      	pop	{r7, pc}
 8001404:	40021000 	.word	0x40021000
 8001408:	f8ff0000 	.word	0xf8ff0000
 800140c:	e000ed00 	.word	0xe000ed00

08001410 <SystemCoreClockUpdate>:
  *           value for HSE crystal.
  * @param  None
  * @retval None
  */
void SystemCoreClockUpdate (void)
{
 8001410:	b480      	push	{r7}
 8001412:	b085      	sub	sp, #20
 8001414:	af00      	add	r7, sp, #0
  uint32_t tmp = 0, pllmull = 0, pllsource = 0;
 8001416:	2300      	movs	r3, #0
 8001418:	60fb      	str	r3, [r7, #12]
 800141a:	2300      	movs	r3, #0
 800141c:	60bb      	str	r3, [r7, #8]
 800141e:	2300      	movs	r3, #0
 8001420:	607b      	str	r3, [r7, #4]
#if defined (STM32F10X_LD_VL) || defined (STM32F10X_MD_VL) || (defined STM32F10X_HD_VL)
  uint32_t prediv1factor = 0;
#endif /* STM32F10X_LD_VL or STM32F10X_MD_VL or STM32F10X_HD_VL */
    
  /* Get SYSCLK source -------------------------------------------------------*/
  tmp = RCC->CFGR & RCC_CFGR_SWS;
 8001422:	4b2c      	ldr	r3, [pc, #176]	; (80014d4 <SystemCoreClockUpdate+0xc4>)
 8001424:	685b      	ldr	r3, [r3, #4]
 8001426:	f003 030c 	and.w	r3, r3, #12
 800142a:	60fb      	str	r3, [r7, #12]
  
  switch (tmp)
 800142c:	68fb      	ldr	r3, [r7, #12]
 800142e:	2b04      	cmp	r3, #4
 8001430:	d007      	beq.n	8001442 <SystemCoreClockUpdate+0x32>
 8001432:	2b08      	cmp	r3, #8
 8001434:	d009      	beq.n	800144a <SystemCoreClockUpdate+0x3a>
 8001436:	2b00      	cmp	r3, #0
 8001438:	d133      	bne.n	80014a2 <SystemCoreClockUpdate+0x92>
  {
    case 0x00:  /* HSI used as system clock */
      SystemCoreClock = HSI_VALUE;
 800143a:	4b27      	ldr	r3, [pc, #156]	; (80014d8 <SystemCoreClockUpdate+0xc8>)
 800143c:	4a27      	ldr	r2, [pc, #156]	; (80014dc <SystemCoreClockUpdate+0xcc>)
 800143e:	601a      	str	r2, [r3, #0]
      break;
 8001440:	e033      	b.n	80014aa <SystemCoreClockUpdate+0x9a>
    case 0x04:  /* HSE used as system clock */
      SystemCoreClock = HSE_VALUE;
 8001442:	4b25      	ldr	r3, [pc, #148]	; (80014d8 <SystemCoreClockUpdate+0xc8>)
 8001444:	4a25      	ldr	r2, [pc, #148]	; (80014dc <SystemCoreClockUpdate+0xcc>)
 8001446:	601a      	str	r2, [r3, #0]
      break;
 8001448:	e02f      	b.n	80014aa <SystemCoreClockUpdate+0x9a>
    case 0x08:  /* PLL used as system clock */

      /* Get PLL clock source and multiplication factor ----------------------*/
      pllmull = RCC->CFGR & RCC_CFGR_PLLMULL;
 800144a:	4b22      	ldr	r3, [pc, #136]	; (80014d4 <SystemCoreClockUpdate+0xc4>)
 800144c:	685b      	ldr	r3, [r3, #4]
 800144e:	f403 1370 	and.w	r3, r3, #3932160	; 0x3c0000
 8001452:	60bb      	str	r3, [r7, #8]
      pllsource = RCC->CFGR & RCC_CFGR_PLLSRC;
 8001454:	4b1f      	ldr	r3, [pc, #124]	; (80014d4 <SystemCoreClockUpdate+0xc4>)
 8001456:	685b      	ldr	r3, [r3, #4]
 8001458:	f403 3380 	and.w	r3, r3, #65536	; 0x10000
 800145c:	607b      	str	r3, [r7, #4]
      
#ifndef STM32F10X_CL      
      pllmull = ( pllmull >> 18) + 2;
 800145e:	68bb      	ldr	r3, [r7, #8]
 8001460:	0c9b      	lsrs	r3, r3, #18
 8001462:	3302      	adds	r3, #2
 8001464:	60bb      	str	r3, [r7, #8]
      
      if (pllsource == 0x00)
 8001466:	687b      	ldr	r3, [r7, #4]
 8001468:	2b00      	cmp	r3, #0
 800146a:	d106      	bne.n	800147a <SystemCoreClockUpdate+0x6a>
      {
        /* HSI oscillator clock divided by 2 selected as PLL clock entry */
        SystemCoreClock = (HSI_VALUE >> 1) * pllmull;
 800146c:	68bb      	ldr	r3, [r7, #8]
 800146e:	4a1c      	ldr	r2, [pc, #112]	; (80014e0 <SystemCoreClockUpdate+0xd0>)
 8001470:	fb02 f303 	mul.w	r3, r2, r3
 8001474:	4a18      	ldr	r2, [pc, #96]	; (80014d8 <SystemCoreClockUpdate+0xc8>)
 8001476:	6013      	str	r3, [r2, #0]
          pll2mull = ((RCC->CFGR2 & RCC_CFGR2_PLL2MUL) >> 8 ) + 2; 
          SystemCoreClock = (((HSE_VALUE / prediv2factor) * pll2mull) / prediv1factor) * pllmull;                         
        }
      }
#endif /* STM32F10X_CL */ 
      break;
 8001478:	e017      	b.n	80014aa <SystemCoreClockUpdate+0x9a>
        if ((RCC->CFGR & RCC_CFGR_PLLXTPRE) != (uint32_t)RESET)
 800147a:	4b16      	ldr	r3, [pc, #88]	; (80014d4 <SystemCoreClockUpdate+0xc4>)
 800147c:	685b      	ldr	r3, [r3, #4]
 800147e:	f403 3300 	and.w	r3, r3, #131072	; 0x20000
 8001482:	2b00      	cmp	r3, #0
 8001484:	d006      	beq.n	8001494 <SystemCoreClockUpdate+0x84>
          SystemCoreClock = (HSE_VALUE >> 1) * pllmull;
 8001486:	68bb      	ldr	r3, [r7, #8]
 8001488:	4a15      	ldr	r2, [pc, #84]	; (80014e0 <SystemCoreClockUpdate+0xd0>)
 800148a:	fb02 f303 	mul.w	r3, r2, r3
 800148e:	4a12      	ldr	r2, [pc, #72]	; (80014d8 <SystemCoreClockUpdate+0xc8>)
 8001490:	6013      	str	r3, [r2, #0]
      break;
 8001492:	e00a      	b.n	80014aa <SystemCoreClockUpdate+0x9a>
          SystemCoreClock = HSE_VALUE * pllmull;
 8001494:	68bb      	ldr	r3, [r7, #8]
 8001496:	4a11      	ldr	r2, [pc, #68]	; (80014dc <SystemCoreClockUpdate+0xcc>)
 8001498:	fb02 f303 	mul.w	r3, r2, r3
 800149c:	4a0e      	ldr	r2, [pc, #56]	; (80014d8 <SystemCoreClockUpdate+0xc8>)
 800149e:	6013      	str	r3, [r2, #0]
      break;
 80014a0:	e003      	b.n	80014aa <SystemCoreClockUpdate+0x9a>

    default:
      SystemCoreClock = HSI_VALUE;
 80014a2:	4b0d      	ldr	r3, [pc, #52]	; (80014d8 <SystemCoreClockUpdate+0xc8>)
 80014a4:	4a0d      	ldr	r2, [pc, #52]	; (80014dc <SystemCoreClockUpdate+0xcc>)
 80014a6:	601a      	str	r2, [r3, #0]
      break;
 80014a8:	bf00      	nop
  }
  
  /* Compute HCLK clock frequency ----------------*/
  /* Get HCLK prescaler */
  tmp = AHBPrescTable[((RCC->CFGR & RCC_CFGR_HPRE) >> 4)];
 80014aa:	4b0a      	ldr	r3, [pc, #40]	; (80014d4 <SystemCoreClockUpdate+0xc4>)
 80014ac:	685b      	ldr	r3, [r3, #4]
 80014ae:	091b      	lsrs	r3, r3, #4
 80014b0:	f003 030f 	and.w	r3, r3, #15
 80014b4:	4a0b      	ldr	r2, [pc, #44]	; (80014e4 <SystemCoreClockUpdate+0xd4>)
 80014b6:	5cd3      	ldrb	r3, [r2, r3]
 80014b8:	b2db      	uxtb	r3, r3
 80014ba:	60fb      	str	r3, [r7, #12]
  /* HCLK clock frequency */
  SystemCoreClock >>= tmp;  
 80014bc:	4b06      	ldr	r3, [pc, #24]	; (80014d8 <SystemCoreClockUpdate+0xc8>)
 80014be:	681a      	ldr	r2, [r3, #0]
 80014c0:	68fb      	ldr	r3, [r7, #12]
 80014c2:	fa22 f303 	lsr.w	r3, r2, r3
 80014c6:	4a04      	ldr	r2, [pc, #16]	; (80014d8 <SystemCoreClockUpdate+0xc8>)
 80014c8:	6013      	str	r3, [r2, #0]
}
 80014ca:	bf00      	nop
 80014cc:	3714      	adds	r7, #20
 80014ce:	46bd      	mov	sp, r7
 80014d0:	bc80      	pop	{r7}
 80014d2:	4770      	bx	lr
 80014d4:	40021000 	.word	0x40021000
 80014d8:	20000000 	.word	0x20000000
 80014dc:	007a1200 	.word	0x007a1200
 80014e0:	003d0900 	.word	0x003d0900
 80014e4:	20000004 	.word	0x20000004

080014e8 <SetSysClock>:
  * @brief  Configures the System clock frequency, HCLK, PCLK2 and PCLK1 prescalers.
  * @param  None
  * @retval None
  */
static void SetSysClock(void)
{
 80014e8:	b580      	push	{r7, lr}
 80014ea:	af00      	add	r7, sp, #0
#ifdef SYSCLK_FREQ_HSE
  SetSysClockToHSE();
 80014ec:	f000 f802 	bl	80014f4 <SetSysClockToHSE>
  SetSysClockTo72();
#endif
 
 /* If none of the define above is enabled, the HSI is used as System clock
    source (default after reset) */ 
}
 80014f0:	bf00      	nop
 80014f2:	bd80      	pop	{r7, pc}

080014f4 <SetSysClockToHSE>:
  * @note   This function should be used only after reset.
  * @param  None
  * @retval None
  */
static void SetSysClockToHSE(void)
{
 80014f4:	b480      	push	{r7}
 80014f6:	b083      	sub	sp, #12
 80014f8:	af00      	add	r7, sp, #0
  __IO uint32_t StartUpCounter = 0, HSEStatus = 0;
 80014fa:	2300      	movs	r3, #0
 80014fc:	607b      	str	r3, [r7, #4]
 80014fe:	2300      	movs	r3, #0
 8001500:	603b      	str	r3, [r7, #0]
  
  /* SYSCLK, HCLK, PCLK2 and PCLK1 configuration ---------------------------*/    
  /* Enable HSE */    
  RCC->CR |= ((uint32_t)RCC_CR_HSEON);
 8001502:	4a2b      	ldr	r2, [pc, #172]	; (80015b0 <SetSysClockToHSE+0xbc>)
 8001504:	4b2a      	ldr	r3, [pc, #168]	; (80015b0 <SetSysClockToHSE+0xbc>)
 8001506:	681b      	ldr	r3, [r3, #0]
 8001508:	f443 3380 	orr.w	r3, r3, #65536	; 0x10000
 800150c:	6013      	str	r3, [r2, #0]
 
  /* Wait till HSE is ready and if Time out is reached exit */
  do
  {
    HSEStatus = RCC->CR & RCC_CR_HSERDY;
 800150e:	4b28      	ldr	r3, [pc, #160]	; (80015b0 <SetSysClockToHSE+0xbc>)
 8001510:	681b      	ldr	r3, [r3, #0]
 8001512:	f403 3300 	and.w	r3, r3, #131072	; 0x20000
 8001516:	603b      	str	r3, [r7, #0]
    StartUpCounter++;  
 8001518:	687b      	ldr	r3, [r7, #4]
 800151a:	3301      	adds	r3, #1
 800151c:	607b      	str	r3, [r7, #4]
  } while((HSEStatus == 0) && (StartUpCounter != HSE_STARTUP_TIMEOUT));
 800151e:	683b      	ldr	r3, [r7, #0]
 8001520:	2b00      	cmp	r3, #0
 8001522:	d103      	bne.n	800152c <SetSysClockToHSE+0x38>
 8001524:	687b      	ldr	r3, [r7, #4]
 8001526:	f5b3 6fa0 	cmp.w	r3, #1280	; 0x500
 800152a:	d1f0      	bne.n	800150e <SetSysClockToHSE+0x1a>

  if ((RCC->CR & RCC_CR_HSERDY) != RESET)
 800152c:	4b20      	ldr	r3, [pc, #128]	; (80015b0 <SetSysClockToHSE+0xbc>)
 800152e:	681b      	ldr	r3, [r3, #0]
 8001530:	f403 3300 	and.w	r3, r3, #131072	; 0x20000
 8001534:	2b00      	cmp	r3, #0
 8001536:	d002      	beq.n	800153e <SetSysClockToHSE+0x4a>
  {
    HSEStatus = (uint32_t)0x01;
 8001538:	2301      	movs	r3, #1
 800153a:	603b      	str	r3, [r7, #0]
 800153c:	e001      	b.n	8001542 <SetSysClockToHSE+0x4e>
  }
  else
  {
    HSEStatus = (uint32_t)0x00;
 800153e:	2300      	movs	r3, #0
 8001540:	603b      	str	r3, [r7, #0]
  }  

  if (HSEStatus == (uint32_t)0x01)
 8001542:	683b      	ldr	r3, [r7, #0]
 8001544:	2b01      	cmp	r3, #1
 8001546:	d12e      	bne.n	80015a6 <SetSysClockToHSE+0xb2>
  {

#if !defined STM32F10X_LD_VL && !defined STM32F10X_MD_VL && !defined STM32F10X_HD_VL
    /* Enable Prefetch Buffer */
    FLASH->ACR |= FLASH_ACR_PRFTBE;
 8001548:	4a1a      	ldr	r2, [pc, #104]	; (80015b4 <SetSysClockToHSE+0xc0>)
 800154a:	4b1a      	ldr	r3, [pc, #104]	; (80015b4 <SetSysClockToHSE+0xc0>)
 800154c:	681b      	ldr	r3, [r3, #0]
 800154e:	f043 0310 	orr.w	r3, r3, #16
 8001552:	6013      	str	r3, [r2, #0]

    /* Flash 0 wait state */
    FLASH->ACR &= (uint32_t)((uint32_t)~FLASH_ACR_LATENCY);
 8001554:	4a17      	ldr	r2, [pc, #92]	; (80015b4 <SetSysClockToHSE+0xc0>)
 8001556:	4b17      	ldr	r3, [pc, #92]	; (80015b4 <SetSysClockToHSE+0xc0>)
 8001558:	681b      	ldr	r3, [r3, #0]
 800155a:	f023 0303 	bic.w	r3, r3, #3
 800155e:	6013      	str	r3, [r2, #0]

#ifndef STM32F10X_CL
    FLASH->ACR |= (uint32_t)FLASH_ACR_LATENCY_0;
 8001560:	4a14      	ldr	r2, [pc, #80]	; (80015b4 <SetSysClockToHSE+0xc0>)
 8001562:	4b14      	ldr	r3, [pc, #80]	; (80015b4 <SetSysClockToHSE+0xc0>)
 8001564:	681b      	ldr	r3, [r3, #0]
 8001566:	6013      	str	r3, [r2, #0]
	}
#endif /* STM32F10X_CL */
#endif
 
    /* HCLK = SYSCLK */
    RCC->CFGR |= (uint32_t)RCC_CFGR_HPRE_DIV1;
 8001568:	4a11      	ldr	r2, [pc, #68]	; (80015b0 <SetSysClockToHSE+0xbc>)
 800156a:	4b11      	ldr	r3, [pc, #68]	; (80015b0 <SetSysClockToHSE+0xbc>)
 800156c:	685b      	ldr	r3, [r3, #4]
 800156e:	6053      	str	r3, [r2, #4]
      
    /* PCLK2 = HCLK */
    RCC->CFGR |= (uint32_t)RCC_CFGR_PPRE2_DIV1;
 8001570:	4a0f      	ldr	r2, [pc, #60]	; (80015b0 <SetSysClockToHSE+0xbc>)
 8001572:	4b0f      	ldr	r3, [pc, #60]	; (80015b0 <SetSysClockToHSE+0xbc>)
 8001574:	685b      	ldr	r3, [r3, #4]
 8001576:	6053      	str	r3, [r2, #4]
    
    /* PCLK1 = HCLK */
    RCC->CFGR |= (uint32_t)RCC_CFGR_PPRE1_DIV1;
 8001578:	4a0d      	ldr	r2, [pc, #52]	; (80015b0 <SetSysClockToHSE+0xbc>)
 800157a:	4b0d      	ldr	r3, [pc, #52]	; (80015b0 <SetSysClockToHSE+0xbc>)
 800157c:	685b      	ldr	r3, [r3, #4]
 800157e:	6053      	str	r3, [r2, #4]
    
    /* Select HSE as system clock source */
    RCC->CFGR &= (uint32_t)((uint32_t)~(RCC_CFGR_SW));
 8001580:	4a0b      	ldr	r2, [pc, #44]	; (80015b0 <SetSysClockToHSE+0xbc>)
 8001582:	4b0b      	ldr	r3, [pc, #44]	; (80015b0 <SetSysClockToHSE+0xbc>)
 8001584:	685b      	ldr	r3, [r3, #4]
 8001586:	f023 0303 	bic.w	r3, r3, #3
 800158a:	6053      	str	r3, [r2, #4]
    RCC->CFGR |= (uint32_t)RCC_CFGR_SW_HSE;    
 800158c:	4a08      	ldr	r2, [pc, #32]	; (80015b0 <SetSysClockToHSE+0xbc>)
 800158e:	4b08      	ldr	r3, [pc, #32]	; (80015b0 <SetSysClockToHSE+0xbc>)
 8001590:	685b      	ldr	r3, [r3, #4]
 8001592:	f043 0301 	orr.w	r3, r3, #1
 8001596:	6053      	str	r3, [r2, #4]

    /* Wait till HSE is used as system clock source */
    while ((RCC->CFGR & (uint32_t)RCC_CFGR_SWS) != (uint32_t)0x04)
 8001598:	bf00      	nop
 800159a:	4b05      	ldr	r3, [pc, #20]	; (80015b0 <SetSysClockToHSE+0xbc>)
 800159c:	685b      	ldr	r3, [r3, #4]
 800159e:	f003 030c 	and.w	r3, r3, #12
 80015a2:	2b04      	cmp	r3, #4
 80015a4:	d1f9      	bne.n	800159a <SetSysClockToHSE+0xa6>
  }
  else
  { /* If HSE fails to start-up, the application will have wrong clock 
         configuration. User can add here some code to deal with this error */
  }  
}
 80015a6:	bf00      	nop
 80015a8:	370c      	adds	r7, #12
 80015aa:	46bd      	mov	sp, r7
 80015ac:	bc80      	pop	{r7}
 80015ae:	4770      	bx	lr
 80015b0:	40021000 	.word	0x40021000
 80015b4:	40022000 	.word	0x40022000

080015b8 <__libc_init_array>:
 80015b8:	b570      	push	{r4, r5, r6, lr}
 80015ba:	2500      	movs	r5, #0
 80015bc:	4e0c      	ldr	r6, [pc, #48]	; (80015f0 <__libc_init_array+0x38>)
 80015be:	4c0d      	ldr	r4, [pc, #52]	; (80015f4 <__libc_init_array+0x3c>)
 80015c0:	1ba4      	subs	r4, r4, r6
 80015c2:	10a4      	asrs	r4, r4, #2
 80015c4:	42a5      	cmp	r5, r4
 80015c6:	d109      	bne.n	80015dc <__libc_init_array+0x24>
 80015c8:	f000 f860 	bl	800168c <_init>
 80015cc:	2500      	movs	r5, #0
 80015ce:	4e0a      	ldr	r6, [pc, #40]	; (80015f8 <__libc_init_array+0x40>)
 80015d0:	4c0a      	ldr	r4, [pc, #40]	; (80015fc <__libc_init_array+0x44>)
 80015d2:	1ba4      	subs	r4, r4, r6
 80015d4:	10a4      	asrs	r4, r4, #2
 80015d6:	42a5      	cmp	r5, r4
 80015d8:	d105      	bne.n	80015e6 <__libc_init_array+0x2e>
 80015da:	bd70      	pop	{r4, r5, r6, pc}
 80015dc:	f856 3025 	ldr.w	r3, [r6, r5, lsl #2]
 80015e0:	4798      	blx	r3
 80015e2:	3501      	adds	r5, #1
 80015e4:	e7ee      	b.n	80015c4 <__libc_init_array+0xc>
 80015e6:	f856 3025 	ldr.w	r3, [r6, r5, lsl #2]
 80015ea:	4798      	blx	r3
 80015ec:	3501      	adds	r5, #1
 80015ee:	e7f2      	b.n	80015d6 <__libc_init_array+0x1e>
 80015f0:	0800178c 	.word	0x0800178c
 80015f4:	0800178c 	.word	0x0800178c
 80015f8:	0800178c 	.word	0x0800178c
 80015fc:	08001790 	.word	0x08001790

08001600 <round>:
 8001600:	b5f8      	push	{r3, r4, r5, r6, r7, lr}
 8001602:	f3c1 570a 	ubfx	r7, r1, #20, #11
 8001606:	f2a7 34ff 	subw	r4, r7, #1023	; 0x3ff
 800160a:	2c13      	cmp	r4, #19
 800160c:	4606      	mov	r6, r0
 800160e:	460d      	mov	r5, r1
 8001610:	460b      	mov	r3, r1
 8001612:	468e      	mov	lr, r1
 8001614:	dc17      	bgt.n	8001646 <round+0x46>
 8001616:	2c00      	cmp	r4, #0
 8001618:	da09      	bge.n	800162e <round+0x2e>
 800161a:	3401      	adds	r4, #1
 800161c:	f001 4300 	and.w	r3, r1, #2147483648	; 0x80000000
 8001620:	d103      	bne.n	800162a <round+0x2a>
 8001622:	f043 537f 	orr.w	r3, r3, #1069547520	; 0x3fc00000
 8001626:	f443 1340 	orr.w	r3, r3, #3145728	; 0x300000
 800162a:	2200      	movs	r2, #0
 800162c:	e029      	b.n	8001682 <round+0x82>
 800162e:	4916      	ldr	r1, [pc, #88]	; (8001688 <round+0x88>)
 8001630:	4121      	asrs	r1, r4
 8001632:	420d      	tst	r5, r1
 8001634:	d100      	bne.n	8001638 <round+0x38>
 8001636:	b188      	cbz	r0, 800165c <round+0x5c>
 8001638:	f44f 2300 	mov.w	r3, #524288	; 0x80000
 800163c:	4123      	asrs	r3, r4
 800163e:	4473      	add	r3, lr
 8001640:	ea23 0301 	bic.w	r3, r3, r1
 8001644:	e7f1      	b.n	800162a <round+0x2a>
 8001646:	2c33      	cmp	r4, #51	; 0x33
 8001648:	dd0b      	ble.n	8001662 <round+0x62>
 800164a:	f5b4 6f80 	cmp.w	r4, #1024	; 0x400
 800164e:	d105      	bne.n	800165c <round+0x5c>
 8001650:	4602      	mov	r2, r0
 8001652:	460b      	mov	r3, r1
 8001654:	f7fe fd82 	bl	800015c <__adddf3>
 8001658:	4606      	mov	r6, r0
 800165a:	460d      	mov	r5, r1
 800165c:	4630      	mov	r0, r6
 800165e:	4629      	mov	r1, r5
 8001660:	bdf8      	pop	{r3, r4, r5, r6, r7, pc}
 8001662:	f04f 30ff 	mov.w	r0, #4294967295
 8001666:	f2a7 4713 	subw	r7, r7, #1043	; 0x413
 800166a:	40f8      	lsrs	r0, r7
 800166c:	4206      	tst	r6, r0
 800166e:	d0f5      	beq.n	800165c <round+0x5c>
 8001670:	2101      	movs	r1, #1
 8001672:	f1c4 0433 	rsb	r4, r4, #51	; 0x33
 8001676:	40a1      	lsls	r1, r4
 8001678:	198a      	adds	r2, r1, r6
 800167a:	bf28      	it	cs
 800167c:	3301      	addcs	r3, #1
 800167e:	ea22 0200 	bic.w	r2, r2, r0
 8001682:	4619      	mov	r1, r3
 8001684:	4610      	mov	r0, r2
 8001686:	e7e7      	b.n	8001658 <round+0x58>
 8001688:	000fffff 	.word	0x000fffff

0800168c <_init>:
 800168c:	b5f8      	push	{r3, r4, r5, r6, r7, lr}
 800168e:	bf00      	nop
 8001690:	bcf8      	pop	{r3, r4, r5, r6, r7}
 8001692:	bc08      	pop	{r3}
 8001694:	469e      	mov	lr, r3
 8001696:	4770      	bx	lr

08001698 <_fini>:
 8001698:	b5f8      	push	{r3, r4, r5, r6, r7, lr}
 800169a:	bf00      	nop
 800169c:	bcf8      	pop	{r3, r4, r5, r6, r7}
 800169e:	bc08      	pop	{r3}
 80016a0:	469e      	mov	lr, r3
 80016a2:	4770      	bx	lr
